
sample.elf:     file format elf32-littlearm

Sections:
Idx Name          Size      VMA       LMA       File off  Algn
  0 .isr_vector   00000138  08000000  08000000  00010000  2**0
                  CONTENTS, ALLOC, LOAD, READONLY, DATA
  1 .text         00001a50  08000138  08000138  00010138  2**2
                  CONTENTS, ALLOC, LOAD, READONLY, CODE
  2 .rodata       00000df4  08001b88  08001b88  00011b88  2**2
                  CONTENTS, ALLOC, LOAD, READONLY, DATA
  3 .ARM.extab    00000000  0800297c  0800297c  00020014  2**0
                  CONTENTS
  4 .ARM          00000000  0800297c  0800297c  00020014  2**0
                  CONTENTS
  5 .preinit_array 00000000  0800297c  0800297c  00020014  2**0
                  CONTENTS, ALLOC, LOAD, DATA
  6 .init_array   00000004  0800297c  0800297c  0001297c  2**2
                  CONTENTS, ALLOC, LOAD, DATA
  7 .fini_array   00000004  08002980  08002980  00012980  2**2
                  CONTENTS, ALLOC, LOAD, DATA
  8 .data         00000014  20000000  08002984  00020000  2**2
                  CONTENTS, ALLOC, LOAD, DATA
  9 .bss          00000474  20000014  08002998  00020014  2**2
                  ALLOC
 10 ._user_heap_stack 00000600  20000488  08002998  00020488  2**0
                  ALLOC
 11 .ARM.attributes 0000002a  00000000  00000000  00020014  2**0
                  CONTENTS, READONLY
 12 .comment      00000053  00000000  00000000  0002003e  2**0
                  CONTENTS, READONLY
 13 .debug_frame  0000004c  00000000  00000000  00020094  2**2
                  CONTENTS, READONLY, DEBUGGING, OCTETS

Disassembly of section .text:

08000138 <__do_global_dtors_aux>:
 8000138:	b510      	push	{r4, lr}
 800013a:	4c05      	ldr	r4, [pc, #20]	; (8000150 <__do_global_dtors_aux+0x18>)
 800013c:	7823      	ldrb	r3, [r4, #0]
 800013e:	b933      	cbnz	r3, 800014e <__do_global_dtors_aux+0x16>
 8000140:	4b04      	ldr	r3, [pc, #16]	; (8000154 <__do_global_dtors_aux+0x1c>)
 8000142:	b113      	cbz	r3, 800014a <__do_global_dtors_aux+0x12>
 8000144:	4804      	ldr	r0, [pc, #16]	; (8000158 <__do_global_dtors_aux+0x20>)
 8000146:	f3af 8000 	nop.w
 800014a:	2301      	movs	r3, #1
 800014c:	7023      	strb	r3, [r4, #0]
 800014e:	bd10      	pop	{r4, pc}
 8000150:	20000014 	.word	0x20000014
 8000154:	00000000 	.word	0x00000000
 8000158:	08001b70 	.word	0x08001b70

0800015c <frame_dummy>:
 800015c:	b508      	push	{r3, lr}
 800015e:	4b03      	ldr	r3, [pc, #12]	; (800016c <frame_dummy+0x10>)
 8000160:	b11b      	cbz	r3, 800016a <frame_dummy+0xe>
 8000162:	4903      	ldr	r1, [pc, #12]	; (8000170 <frame_dummy+0x14>)
 8000164:	4803      	ldr	r0, [pc, #12]	; (8000174 <frame_dummy+0x18>)
 8000166:	f3af 8000 	nop.w
 800016a:	bd08      	pop	{r3, pc}
 800016c:	00000000 	.word	0x00000000
 8000170:	20000018 	.word	0x20000018
 8000174:	08001b70 	.word	0x08001b70

08000178 <SystemClock_Config>:
 8000178:	b510      	push	{r4, lr}
 800017a:	b09a      	sub	sp, #104	; 0x68
 800017c:	2244      	movs	r2, #68	; 0x44
 800017e:	2100      	movs	r1, #0
 8000180:	a809      	add	r0, sp, #36	; 0x24
 8000182:	f001 fced 	bl	8001b60 <memset>
 8000186:	2100      	movs	r1, #0
 8000188:	2218      	movs	r2, #24
 800018a:	a802      	add	r0, sp, #8
 800018c:	f001 fce8 	bl	8001b60 <memset>
 8000190:	4a12      	ldr	r2, [pc, #72]	; (80001dc <SystemClock_Config+0x64>)
 8000192:	6813      	ldr	r3, [r2, #0]
 8000194:	f423 63c0 	bic.w	r3, r3, #1536	; 0x600
 8000198:	f443 6380 	orr.w	r3, r3, #1024	; 0x400
 800019c:	6013      	str	r3, [r2, #0]
 800019e:	6813      	ldr	r3, [r2, #0]
 80001a0:	f403 63c0 	and.w	r3, r3, #1536	; 0x600
 80001a4:	9301      	str	r3, [sp, #4]
 80001a6:	9b01      	ldr	r3, [sp, #4]
 80001a8:	2320      	movs	r3, #32
 80001aa:	2400      	movs	r4, #0
 80001ac:	9308      	str	r3, [sp, #32]
 80001ae:	2301      	movs	r3, #1
 80001b0:	e9cd 3410 	strd	r3, r4, [sp, #64]	; 0x40
 80001b4:	a808      	add	r0, sp, #32
 80001b6:	2360      	movs	r3, #96	; 0x60
 80001b8:	e9cd 3412 	strd	r3, r4, [sp, #72]	; 0x48
 80001bc:	f001 f834 	bl	8001228 <HAL_RCC_OscConfig>
 80001c0:	234f      	movs	r3, #79	; 0x4f
 80001c2:	4621      	mov	r1, r4
 80001c4:	a802      	add	r0, sp, #8
 80001c6:	e9cd 3402 	strd	r3, r4, [sp, #8]
 80001ca:	e9cd 4404 	strd	r4, r4, [sp, #16]
 80001ce:	e9cd 4406 	strd	r4, r4, [sp, #24]
 80001d2:	f001 fac9 	bl	8001768 <HAL_RCC_ClockConfig>
 80001d6:	b01a      	add	sp, #104	; 0x68
 80001d8:	bd10      	pop	{r4, pc}
 80001da:	bf00      	nop
 80001dc:	58000400 	.word	0x58000400

080001e0 <main>:
 80001e0:	b580      	push	{r7, lr}
 80001e2:	b088      	sub	sp, #32
 80001e4:	f000 fb0c 	bl	8000800 <HAL_Init>
 80001e8:	f7ff ffc6 	bl	8000178 <SystemClock_Config>
 80001ec:	2214      	movs	r2, #20
 80001ee:	2100      	movs	r1, #0
 80001f0:	a803      	add	r0, sp, #12
 80001f2:	f001 fcb5 	bl	8001b60 <memset>
 80001f6:	f04f 43b0 	mov.w	r3, #1476395008	; 0x58000000
 80001fa:	4850      	ldr	r0, [pc, #320]	; (800033c <main+0x15c>)
 80001fc:	6cda      	ldr	r2, [r3, #76]	; 0x4c
 80001fe:	4c50      	ldr	r4, [pc, #320]	; (8000340 <main+0x160>)
 8000200:	f042 0201 	orr.w	r2, r2, #1
 8000204:	64da      	str	r2, [r3, #76]	; 0x4c
 8000206:	6cda      	ldr	r2, [r3, #76]	; 0x4c
 8000208:	f002 0201 	and.w	r2, r2, #1
 800020c:	9202      	str	r2, [sp, #8]
 800020e:	9a02      	ldr	r2, [sp, #8]
 8000210:	6cda      	ldr	r2, [r3, #76]	; 0x4c
 8000212:	f042 0202 	orr.w	r2, r2, #2
 8000216:	64da      	str	r2, [r3, #76]	; 0x4c
 8000218:	6cdb      	ldr	r3, [r3, #76]	; 0x4c
 800021a:	f003 0302 	and.w	r3, r3, #2
 800021e:	2200      	movs	r2, #0
 8000220:	9301      	str	r3, [sp, #4]
 8000222:	2120      	movs	r1, #32
 8000224:	2500      	movs	r5, #0
 8000226:	2601      	movs	r6, #1
 8000228:	9b01      	ldr	r3, [sp, #4]
 800022a:	2720      	movs	r7, #32
 800022c:	f000 fc30 	bl	8000a90 <HAL_GPIO_WritePin>
 8000230:	4842      	ldr	r0, [pc, #264]	; (800033c <main+0x15c>)
 8000232:	a903      	add	r1, sp, #12
 8000234:	e9cd 7603 	strd	r7, r6, [sp, #12]
 8000238:	e9cd 5505 	strd	r5, r5, [sp, #20]
 800023c:	f000 fb76 	bl	800092c <HAL_GPIO_Init>
 8000240:	a903      	add	r1, sp, #12
 8000242:	f04f 4090 	mov.w	r0, #1207959552	; 0x48000000
 8000246:	e9cd 6503 	strd	r6, r5, [sp, #12]
 800024a:	9605      	str	r6, [sp, #20]
 800024c:	f000 fb6e 	bl	800092c <HAL_GPIO_Init>
 8000250:	4a3c      	ldr	r2, [pc, #240]	; (8000344 <main+0x164>)
 8000252:	6225      	str	r5, [r4, #32]
 8000254:	2304      	movs	r3, #4
 8000256:	4620      	mov	r0, r4
 8000258:	e9c4 2300 	strd	r2, r3, [r4]
 800025c:	e9c4 5602 	strd	r5, r6, [r4, #8]
 8000260:	e9c4 5504 	strd	r5, r5, [r4, #16]
 8000264:	e9c4 5506 	strd	r5, r5, [r4, #24]
 8000268:	f000 fcf5 	bl	8000c56 <HAL_I2C_Init>
 800026c:	4629      	mov	r1, r5
 800026e:	4620      	mov	r0, r4
 8000270:	f000 fe75 	bl	8000f5e <HAL_I2CEx_ConfigAnalogFilter>
 8000274:	4629      	mov	r1, r5
 8000276:	4620      	mov	r0, r4
 8000278:	f000 fe97 	bl	8000faa <HAL_I2CEx_ConfigDigitalFilter>
 800027c:	4631      	mov	r1, r6
 800027e:	f04f 4090 	mov.w	r0, #1207959552	; 0x48000000
 8000282:	f000 fbff 	bl	8000a84 <HAL_GPIO_ReadPin>
 8000286:	2800      	cmp	r0, #0
 8000288:	d147      	bne.n	800031a <main+0x13a>
 800028a:	482c      	ldr	r0, [pc, #176]	; (800033c <main+0x15c>)
 800028c:	4639      	mov	r1, r7
 800028e:	f000 fc04 	bl	8000a9a <HAL_GPIO_TogglePin>
 8000292:	f44f 70fa 	mov.w	r0, #500	; 0x1f4
 8000296:	f000 fadb 	bl	8000850 <HAL_Delay>
 800029a:	f000 f949 	bl	8000530 <SSD1306_Init>
 800029e:	2064      	movs	r0, #100	; 0x64
 80002a0:	f000 fad6 	bl	8000850 <HAL_Delay>
 80002a4:	2100      	movs	r1, #0
 80002a6:	4608      	mov	r0, r1
 80002a8:	f000 f882 	bl	80003b0 <SSD1306_GotoXY>
 80002ac:	2201      	movs	r2, #1
 80002ae:	4926      	ldr	r1, [pc, #152]	; (8000348 <main+0x168>)
 80002b0:	4826      	ldr	r0, [pc, #152]	; (800034c <main+0x16c>)
 80002b2:	4d25      	ldr	r5, [pc, #148]	; (8000348 <main+0x168>)
 80002b4:	4e21      	ldr	r6, [pc, #132]	; (800033c <main+0x15c>)
 80002b6:	f000 f8cb 	bl	8000450 <SSD1306_Puts>
 80002ba:	2114      	movs	r1, #20
 80002bc:	2000      	movs	r0, #0
 80002be:	f000 f877 	bl	80003b0 <SSD1306_GotoXY>
 80002c2:	4921      	ldr	r1, [pc, #132]	; (8000348 <main+0x168>)
 80002c4:	4822      	ldr	r0, [pc, #136]	; (8000350 <main+0x170>)
 80002c6:	2201      	movs	r2, #1
 80002c8:	f000 f8c2 	bl	8000450 <SSD1306_Puts>
 80002cc:	f000 f906 	bl	80004dc <SSD1306_UpdateScreen>
 80002d0:	2341      	movs	r3, #65	; 0x41
 80002d2:	f8ad 300c 	strh.w	r3, [sp, #12]
 80002d6:	2101      	movs	r1, #1
 80002d8:	f04f 4090 	mov.w	r0, #1207959552	; 0x48000000
 80002dc:	f000 fbd2 	bl	8000a84 <HAL_GPIO_ReadPin>
 80002e0:	4604      	mov	r4, r0
 80002e2:	bb40      	cbnz	r0, 8000336 <main+0x156>
 80002e4:	f000 f91c 	bl	8000520 <SSD1306_Clear>
 80002e8:	4621      	mov	r1, r4
 80002ea:	4620      	mov	r0, r4
 80002ec:	f000 f860 	bl	80003b0 <SSD1306_GotoXY>
 80002f0:	2201      	movs	r2, #1
 80002f2:	4629      	mov	r1, r5
 80002f4:	a803      	add	r0, sp, #12
 80002f6:	f000 f8ab 	bl	8000450 <SSD1306_Puts>
 80002fa:	f000 f8ef 	bl	80004dc <SSD1306_UpdateScreen>
 80002fe:	f89d 300c 	ldrb.w	r3, [sp, #12]
 8000302:	4630      	mov	r0, r6
 8000304:	3301      	adds	r3, #1
 8000306:	2120      	movs	r1, #32
 8000308:	f88d 300c 	strb.w	r3, [sp, #12]
 800030c:	f000 fbc5 	bl	8000a9a <HAL_GPIO_TogglePin>
 8000310:	f44f 707a 	mov.w	r0, #1000	; 0x3e8
 8000314:	f000 fa9c 	bl	8000850 <HAL_Delay>
 8000318:	e7dd      	b.n	80002d6 <main+0xf6>
 800031a:	4631      	mov	r1, r6
 800031c:	f04f 4090 	mov.w	r0, #1207959552	; 0x48000000
 8000320:	f000 fbb0 	bl	8000a84 <HAL_GPIO_ReadPin>
 8000324:	2801      	cmp	r0, #1
 8000326:	d1b8      	bne.n	800029a <main+0xba>
 8000328:	4804      	ldr	r0, [pc, #16]	; (800033c <main+0x15c>)
 800032a:	4639      	mov	r1, r7
 800032c:	f000 fbb5 	bl	8000a9a <HAL_GPIO_TogglePin>
 8000330:	f44f 707a 	mov.w	r0, #1000	; 0x3e8
 8000334:	e7af      	b.n	8000296 <main+0xb6>
 8000336:	f000 f8cb 	bl	80004d0 <SSD1306_Stopscroll>
 800033a:	e7cc      	b.n	80002d6 <main+0xf6>
 800033c:	48000400 	.word	0x48000400
 8000340:	20000438 	.word	0x20000438
 8000344:	40005800 	.word	0x40005800
 8000348:	20000000 	.word	0x20000000
 800034c:	080028f0 	.word	0x080028f0
 8000350:	080028f6 	.word	0x080028f6

08000354 <Error_Handler>:
 8000354:	4770      	bx	lr
	...

08000358 <SSD1306_Fill>:
 8000358:	2800      	cmp	r0, #0
 800035a:	f44f 6280 	mov.w	r2, #1024	; 0x400
 800035e:	4803      	ldr	r0, [pc, #12]	; (800036c <SSD1306_Fill+0x14>)
 8000360:	bf14      	ite	ne
 8000362:	21ff      	movne	r1, #255	; 0xff
 8000364:	2100      	moveq	r1, #0
 8000366:	f001 bbfb 	b.w	8001b60 <memset>
 800036a:	bf00      	nop
 800036c:	20000036 	.word	0x20000036

08000370 <SSD1306_DrawPixel>:
 8000370:	287f      	cmp	r0, #127	; 0x7f
 8000372:	b530      	push	{r4, r5, lr}
 8000374:	d817      	bhi.n	80003a6 <SSD1306_DrawPixel+0x36>
 8000376:	293f      	cmp	r1, #63	; 0x3f
 8000378:	d815      	bhi.n	80003a6 <SSD1306_DrawPixel+0x36>
 800037a:	4b0b      	ldr	r3, [pc, #44]	; (80003a8 <SSD1306_DrawPixel+0x38>)
 800037c:	791b      	ldrb	r3, [r3, #4]
 800037e:	b113      	cbz	r3, 8000386 <SSD1306_DrawPixel+0x16>
 8000380:	fab2 f282 	clz	r2, r2
 8000384:	0952      	lsrs	r2, r2, #5
 8000386:	08cb      	lsrs	r3, r1, #3
 8000388:	4d08      	ldr	r5, [pc, #32]	; (80003ac <SSD1306_DrawPixel+0x3c>)
 800038a:	eb00 10c3 	add.w	r0, r0, r3, lsl #7
 800038e:	2401      	movs	r4, #1
 8000390:	f001 0107 	and.w	r1, r1, #7
 8000394:	562b      	ldrsb	r3, [r5, r0]
 8000396:	fa04 f101 	lsl.w	r1, r4, r1
 800039a:	b249      	sxtb	r1, r1
 800039c:	42a2      	cmp	r2, r4
 800039e:	bf0c      	ite	eq
 80003a0:	430b      	orreq	r3, r1
 80003a2:	438b      	bicne	r3, r1
 80003a4:	542b      	strb	r3, [r5, r0]
 80003a6:	bd30      	pop	{r4, r5, pc}
 80003a8:	20000030 	.word	0x20000030
 80003ac:	20000036 	.word	0x20000036

080003b0 <SSD1306_GotoXY>:
 80003b0:	4b01      	ldr	r3, [pc, #4]	; (80003b8 <SSD1306_GotoXY+0x8>)
 80003b2:	8018      	strh	r0, [r3, #0]
 80003b4:	8059      	strh	r1, [r3, #2]
 80003b6:	4770      	bx	lr
 80003b8:	20000030 	.word	0x20000030

080003bc <SSD1306_Putc>:
 80003bc:	e92d 4ff7 	stmdb	sp!, {r0, r1, r2, r4, r5, r6, r7, r8, r9, sl, fp, lr}
 80003c0:	4e22      	ldr	r6, [pc, #136]	; (800044c <SSD1306_Putc+0x90>)
 80003c2:	780b      	ldrb	r3, [r1, #0]
 80003c4:	8837      	ldrh	r7, [r6, #0]
 80003c6:	443b      	add	r3, r7
 80003c8:	2b7f      	cmp	r3, #127	; 0x7f
 80003ca:	4605      	mov	r5, r0
 80003cc:	460c      	mov	r4, r1
 80003ce:	4691      	mov	r9, r2
 80003d0:	dc3a      	bgt.n	8000448 <SSD1306_Putc+0x8c>
 80003d2:	f8b6 b002 	ldrh.w	fp, [r6, #2]
 80003d6:	784b      	ldrb	r3, [r1, #1]
 80003d8:	445b      	add	r3, fp
 80003da:	2b3f      	cmp	r3, #63	; 0x3f
 80003dc:	dc34      	bgt.n	8000448 <SSD1306_Putc+0x8c>
 80003de:	f1a0 0320 	sub.w	r3, r0, #32
 80003e2:	f04f 0a00 	mov.w	sl, #0
 80003e6:	9301      	str	r3, [sp, #4]
 80003e8:	7862      	ldrb	r2, [r4, #1]
 80003ea:	4592      	cmp	sl, r2
 80003ec:	d306      	bcc.n	80003fc <SSD1306_Putc+0x40>
 80003ee:	7823      	ldrb	r3, [r4, #0]
 80003f0:	441f      	add	r7, r3
 80003f2:	8037      	strh	r7, [r6, #0]
 80003f4:	4628      	mov	r0, r5
 80003f6:	b003      	add	sp, #12
 80003f8:	e8bd 8ff0 	ldmia.w	sp!, {r4, r5, r6, r7, r8, r9, sl, fp, pc}
 80003fc:	9b01      	ldr	r3, [sp, #4]
 80003fe:	6860      	ldr	r0, [r4, #4]
 8000400:	fb02 a203 	mla	r2, r2, r3, sl
 8000404:	f04f 0800 	mov.w	r8, #0
 8000408:	f830 3012 	ldrh.w	r3, [r0, r2, lsl #1]
 800040c:	9300      	str	r3, [sp, #0]
 800040e:	7822      	ldrb	r2, [r4, #0]
 8000410:	4590      	cmp	r8, r2
 8000412:	d306      	bcc.n	8000422 <SSD1306_Putc+0x66>
 8000414:	f10b 0101 	add.w	r1, fp, #1
 8000418:	f10a 0a01 	add.w	sl, sl, #1
 800041c:	fa1f fb81 	uxth.w	fp, r1
 8000420:	e7e2      	b.n	80003e8 <SSD1306_Putc+0x2c>
 8000422:	9b00      	ldr	r3, [sp, #0]
 8000424:	fa03 f208 	lsl.w	r2, r3, r8
 8000428:	0413      	lsls	r3, r2, #16
 800042a:	eb07 0008 	add.w	r0, r7, r8
 800042e:	bf58      	it	pl
 8000430:	fab9 f289 	clzpl	r2, r9
 8000434:	b280      	uxth	r0, r0
 8000436:	bf4c      	ite	mi
 8000438:	464a      	movmi	r2, r9
 800043a:	0952      	lsrpl	r2, r2, #5
 800043c:	4659      	mov	r1, fp
 800043e:	f7ff ff97 	bl	8000370 <SSD1306_DrawPixel>
 8000442:	f108 0801 	add.w	r8, r8, #1
 8000446:	e7e2      	b.n	800040e <SSD1306_Putc+0x52>
 8000448:	2500      	movs	r5, #0
 800044a:	e7d3      	b.n	80003f4 <SSD1306_Putc+0x38>
 800044c:	20000030 	.word	0x20000030

08000450 <SSD1306_Puts>:
 8000450:	b570      	push	{r4, r5, r6, lr}
 8000452:	460d      	mov	r5, r1
 8000454:	4616      	mov	r6, r2
 8000456:	1e44      	subs	r4, r0, #1
 8000458:	f814 0f01 	ldrb.w	r0, [r4, #1]!
 800045c:	b138      	cbz	r0, 800046e <SSD1306_Puts+0x1e>
 800045e:	4632      	mov	r2, r6
 8000460:	4629      	mov	r1, r5
 8000462:	f7ff ffab 	bl	80003bc <SSD1306_Putc>
 8000466:	4603      	mov	r3, r0
 8000468:	7820      	ldrb	r0, [r4, #0]
 800046a:	4283      	cmp	r3, r0
 800046c:	d0f4      	beq.n	8000458 <SSD1306_Puts+0x8>
 800046e:	bd70      	pop	{r4, r5, r6, pc}

08000470 <ssd1306_I2C_WriteMulti>:
 8000470:	b530      	push	{r4, r5, lr}
 8000472:	b0c3      	sub	sp, #268	; 0x10c
 8000474:	f88d 1008 	strb.w	r1, [sp, #8]
 8000478:	2100      	movs	r1, #0
 800047a:	b2cc      	uxtb	r4, r1
 800047c:	429c      	cmp	r4, r3
 800047e:	f101 0501 	add.w	r5, r1, #1
 8000482:	d30a      	bcc.n	800049a <ssd1306_I2C_WriteMulti+0x2a>
 8000484:	220a      	movs	r2, #10
 8000486:	3301      	adds	r3, #1
 8000488:	9200      	str	r2, [sp, #0]
 800048a:	4601      	mov	r1, r0
 800048c:	b29b      	uxth	r3, r3
 800048e:	aa02      	add	r2, sp, #8
 8000490:	4805      	ldr	r0, [pc, #20]	; (80004a8 <ssd1306_I2C_WriteMulti+0x38>)
 8000492:	f000 fc31 	bl	8000cf8 <HAL_I2C_Master_Transmit>
 8000496:	b043      	add	sp, #268	; 0x10c
 8000498:	bd30      	pop	{r4, r5, pc}
 800049a:	a902      	add	r1, sp, #8
 800049c:	4421      	add	r1, r4
 800049e:	5d14      	ldrb	r4, [r2, r4]
 80004a0:	704c      	strb	r4, [r1, #1]
 80004a2:	4629      	mov	r1, r5
 80004a4:	e7e9      	b.n	800047a <ssd1306_I2C_WriteMulti+0xa>
 80004a6:	bf00      	nop
 80004a8:	20000438 	.word	0x20000438

080004ac <ssd1306_I2C_Write>:
 80004ac:	b51f      	push	{r0, r1, r2, r3, r4, lr}
 80004ae:	230a      	movs	r3, #10
 80004b0:	f88d 100c 	strb.w	r1, [sp, #12]
 80004b4:	f88d 200d 	strb.w	r2, [sp, #13]
 80004b8:	9300      	str	r3, [sp, #0]
 80004ba:	4601      	mov	r1, r0
 80004bc:	2302      	movs	r3, #2
 80004be:	aa03      	add	r2, sp, #12
 80004c0:	4802      	ldr	r0, [pc, #8]	; (80004cc <ssd1306_I2C_Write+0x20>)
 80004c2:	f000 fc19 	bl	8000cf8 <HAL_I2C_Master_Transmit>
 80004c6:	b005      	add	sp, #20
 80004c8:	f85d fb04 	ldr.w	pc, [sp], #4
 80004cc:	20000438 	.word	0x20000438

080004d0 <SSD1306_Stopscroll>:
 80004d0:	222e      	movs	r2, #46	; 0x2e
 80004d2:	2100      	movs	r1, #0
 80004d4:	2078      	movs	r0, #120	; 0x78
 80004d6:	f7ff bfe9 	b.w	80004ac <ssd1306_I2C_Write>
	...

080004dc <SSD1306_UpdateScreen>:
 80004dc:	b538      	push	{r3, r4, r5, lr}
 80004de:	4d0f      	ldr	r5, [pc, #60]	; (800051c <SSD1306_UpdateScreen+0x40>)
 80004e0:	24b0      	movs	r4, #176	; 0xb0
 80004e2:	4622      	mov	r2, r4
 80004e4:	2100      	movs	r1, #0
 80004e6:	2078      	movs	r0, #120	; 0x78
 80004e8:	f7ff ffe0 	bl	80004ac <ssd1306_I2C_Write>
 80004ec:	2200      	movs	r2, #0
 80004ee:	4611      	mov	r1, r2
 80004f0:	2078      	movs	r0, #120	; 0x78
 80004f2:	f7ff ffdb 	bl	80004ac <ssd1306_I2C_Write>
 80004f6:	3401      	adds	r4, #1
 80004f8:	2210      	movs	r2, #16
 80004fa:	2100      	movs	r1, #0
 80004fc:	2078      	movs	r0, #120	; 0x78
 80004fe:	f7ff ffd5 	bl	80004ac <ssd1306_I2C_Write>
 8000502:	b2e4      	uxtb	r4, r4
 8000504:	462a      	mov	r2, r5
 8000506:	2380      	movs	r3, #128	; 0x80
 8000508:	2140      	movs	r1, #64	; 0x40
 800050a:	2078      	movs	r0, #120	; 0x78
 800050c:	f7ff ffb0 	bl	8000470 <ssd1306_I2C_WriteMulti>
 8000510:	2cb8      	cmp	r4, #184	; 0xb8
 8000512:	f105 0580 	add.w	r5, r5, #128	; 0x80
 8000516:	d1e4      	bne.n	80004e2 <SSD1306_UpdateScreen+0x6>
 8000518:	bd38      	pop	{r3, r4, r5, pc}
 800051a:	bf00      	nop
 800051c:	20000036 	.word	0x20000036

08000520 <SSD1306_Clear>:
 8000520:	b508      	push	{r3, lr}
 8000522:	2000      	movs	r0, #0
 8000524:	f7ff ff18 	bl	8000358 <SSD1306_Fill>
 8000528:	e8bd 4008 	ldmia.w	sp!, {r3, lr}
 800052c:	f7ff bfd6 	b.w	80004dc <SSD1306_UpdateScreen>

08000530 <SSD1306_Init>:
 8000530:	b510      	push	{r4, lr}
 8000532:	4854      	ldr	r0, [pc, #336]	; (8000684 <SSD1306_Init+0x154>)
 8000534:	f644 6320 	movw	r3, #20000	; 0x4e20
 8000538:	2201      	movs	r2, #1
 800053a:	2178      	movs	r1, #120	; 0x78
 800053c:	f000 fc72 	bl	8000e24 <HAL_I2C_IsDeviceReady>
 8000540:	4604      	mov	r4, r0
 8000542:	2800      	cmp	r0, #0
 8000544:	f040 809c 	bne.w	8000680 <SSD1306_Init+0x150>
 8000548:	4601      	mov	r1, r0
 800054a:	22ae      	movs	r2, #174	; 0xae
 800054c:	2078      	movs	r0, #120	; 0x78
 800054e:	f7ff ffad 	bl	80004ac <ssd1306_I2C_Write>
 8000552:	2220      	movs	r2, #32
 8000554:	4621      	mov	r1, r4
 8000556:	2078      	movs	r0, #120	; 0x78
 8000558:	f7ff ffa8 	bl	80004ac <ssd1306_I2C_Write>
 800055c:	2210      	movs	r2, #16
 800055e:	4621      	mov	r1, r4
 8000560:	2078      	movs	r0, #120	; 0x78
 8000562:	f7ff ffa3 	bl	80004ac <ssd1306_I2C_Write>
 8000566:	22b0      	movs	r2, #176	; 0xb0
 8000568:	4621      	mov	r1, r4
 800056a:	2078      	movs	r0, #120	; 0x78
 800056c:	f7ff ff9e 	bl	80004ac <ssd1306_I2C_Write>
 8000570:	22c8      	movs	r2, #200	; 0xc8
 8000572:	4621      	mov	r1, r4
 8000574:	2078      	movs	r0, #120	; 0x78
 8000576:	f7ff ff99 	bl	80004ac <ssd1306_I2C_Write>
 800057a:	4622      	mov	r2, r4
 800057c:	4621      	mov	r1, r4
 800057e:	2078      	movs	r0, #120	; 0x78
 8000580:	f7ff ff94 	bl	80004ac <ssd1306_I2C_Write>
 8000584:	2210      	movs	r2, #16
 8000586:	4621      	mov	r1, r4
 8000588:	2078      	movs	r0, #120	; 0x78
 800058a:	f7ff ff8f 	bl	80004ac <ssd1306_I2C_Write>
 800058e:	2240      	movs	r2, #64	; 0x40
 8000590:	4621      	mov	r1, r4
 8000592:	2078      	movs	r0, #120	; 0x78
 8000594:	f7ff ff8a 	bl	80004ac <ssd1306_I2C_Write>
 8000598:	2281      	movs	r2, #129	; 0x81
 800059a:	4621      	mov	r1, r4
 800059c:	2078      	movs	r0, #120	; 0x78
 800059e:	f7ff ff85 	bl	80004ac <ssd1306_I2C_Write>
 80005a2:	22ff      	movs	r2, #255	; 0xff
 80005a4:	4621      	mov	r1, r4
 80005a6:	2078      	movs	r0, #120	; 0x78
 80005a8:	f7ff ff80 	bl	80004ac <ssd1306_I2C_Write>
 80005ac:	22a1      	movs	r2, #161	; 0xa1
 80005ae:	4621      	mov	r1, r4
 80005b0:	2078      	movs	r0, #120	; 0x78
 80005b2:	f7ff ff7b 	bl	80004ac <ssd1306_I2C_Write>
 80005b6:	22a6      	movs	r2, #166	; 0xa6
 80005b8:	4621      	mov	r1, r4
 80005ba:	2078      	movs	r0, #120	; 0x78
 80005bc:	f7ff ff76 	bl	80004ac <ssd1306_I2C_Write>
 80005c0:	22a8      	movs	r2, #168	; 0xa8
 80005c2:	4621      	mov	r1, r4
 80005c4:	2078      	movs	r0, #120	; 0x78
 80005c6:	f7ff ff71 	bl	80004ac <ssd1306_I2C_Write>
 80005ca:	223f      	movs	r2, #63	; 0x3f
 80005cc:	4621      	mov	r1, r4
 80005ce:	2078      	movs	r0, #120	; 0x78
 80005d0:	f7ff ff6c 	bl	80004ac <ssd1306_I2C_Write>
 80005d4:	22a4      	movs	r2, #164	; 0xa4
 80005d6:	4621      	mov	r1, r4
 80005d8:	2078      	movs	r0, #120	; 0x78
 80005da:	f7ff ff67 	bl	80004ac <ssd1306_I2C_Write>
 80005de:	22d3      	movs	r2, #211	; 0xd3
 80005e0:	4621      	mov	r1, r4
 80005e2:	2078      	movs	r0, #120	; 0x78
 80005e4:	f7ff ff62 	bl	80004ac <ssd1306_I2C_Write>
 80005e8:	4622      	mov	r2, r4
 80005ea:	4621      	mov	r1, r4
 80005ec:	2078      	movs	r0, #120	; 0x78
 80005ee:	f7ff ff5d 	bl	80004ac <ssd1306_I2C_Write>
 80005f2:	22d5      	movs	r2, #213	; 0xd5
 80005f4:	4621      	mov	r1, r4
 80005f6:	2078      	movs	r0, #120	; 0x78
 80005f8:	f7ff ff58 	bl	80004ac <ssd1306_I2C_Write>
 80005fc:	22f0      	movs	r2, #240	; 0xf0
 80005fe:	4621      	mov	r1, r4
 8000600:	2078      	movs	r0, #120	; 0x78
 8000602:	f7ff ff53 	bl	80004ac <ssd1306_I2C_Write>
 8000606:	22d9      	movs	r2, #217	; 0xd9
 8000608:	4621      	mov	r1, r4
 800060a:	2078      	movs	r0, #120	; 0x78
 800060c:	f7ff ff4e 	bl	80004ac <ssd1306_I2C_Write>
 8000610:	2222      	movs	r2, #34	; 0x22
 8000612:	4621      	mov	r1, r4
 8000614:	2078      	movs	r0, #120	; 0x78
 8000616:	f7ff ff49 	bl	80004ac <ssd1306_I2C_Write>
 800061a:	22da      	movs	r2, #218	; 0xda
 800061c:	4621      	mov	r1, r4
 800061e:	2078      	movs	r0, #120	; 0x78
 8000620:	f7ff ff44 	bl	80004ac <ssd1306_I2C_Write>
 8000624:	2212      	movs	r2, #18
 8000626:	4621      	mov	r1, r4
 8000628:	2078      	movs	r0, #120	; 0x78
 800062a:	f7ff ff3f 	bl	80004ac <ssd1306_I2C_Write>
 800062e:	22db      	movs	r2, #219	; 0xdb
 8000630:	4621      	mov	r1, r4
 8000632:	2078      	movs	r0, #120	; 0x78
 8000634:	f7ff ff3a 	bl	80004ac <ssd1306_I2C_Write>
 8000638:	2220      	movs	r2, #32
 800063a:	4621      	mov	r1, r4
 800063c:	2078      	movs	r0, #120	; 0x78
 800063e:	f7ff ff35 	bl	80004ac <ssd1306_I2C_Write>
 8000642:	228d      	movs	r2, #141	; 0x8d
 8000644:	4621      	mov	r1, r4
 8000646:	2078      	movs	r0, #120	; 0x78
 8000648:	f7ff ff30 	bl	80004ac <ssd1306_I2C_Write>
 800064c:	2214      	movs	r2, #20
 800064e:	4621      	mov	r1, r4
 8000650:	2078      	movs	r0, #120	; 0x78
 8000652:	f7ff ff2b 	bl	80004ac <ssd1306_I2C_Write>
 8000656:	22af      	movs	r2, #175	; 0xaf
 8000658:	4621      	mov	r1, r4
 800065a:	2078      	movs	r0, #120	; 0x78
 800065c:	f7ff ff26 	bl	80004ac <ssd1306_I2C_Write>
 8000660:	222e      	movs	r2, #46	; 0x2e
 8000662:	4621      	mov	r1, r4
 8000664:	2078      	movs	r0, #120	; 0x78
 8000666:	f7ff ff21 	bl	80004ac <ssd1306_I2C_Write>
 800066a:	4620      	mov	r0, r4
 800066c:	f7ff fe74 	bl	8000358 <SSD1306_Fill>
 8000670:	f7ff ff34 	bl	80004dc <SSD1306_UpdateScreen>
 8000674:	4b04      	ldr	r3, [pc, #16]	; (8000688 <SSD1306_Init+0x158>)
 8000676:	2001      	movs	r0, #1
 8000678:	801c      	strh	r4, [r3, #0]
 800067a:	805c      	strh	r4, [r3, #2]
 800067c:	7158      	strb	r0, [r3, #5]
 800067e:	bd10      	pop	{r4, pc}
 8000680:	2000      	movs	r0, #0
 8000682:	e7fc      	b.n	800067e <SSD1306_Init+0x14e>
 8000684:	20000438 	.word	0x20000438
 8000688:	20000030 	.word	0x20000030

0800068c <HAL_MspInit>:
 800068c:	4770      	bx	lr
	...

08000690 <HAL_I2C_MspInit>:
 8000690:	e92d 43f0 	stmdb	sp!, {r4, r5, r6, r7, r8, r9, lr}
 8000694:	b097      	sub	sp, #92	; 0x5c
 8000696:	4604      	mov	r4, r0
 8000698:	2214      	movs	r2, #20
 800069a:	2100      	movs	r1, #0
 800069c:	a803      	add	r0, sp, #12
 800069e:	f001 fa5f 	bl	8001b60 <memset>
 80006a2:	2238      	movs	r2, #56	; 0x38
 80006a4:	2100      	movs	r1, #0
 80006a6:	a808      	add	r0, sp, #32
 80006a8:	f001 fa5a 	bl	8001b60 <memset>
 80006ac:	6822      	ldr	r2, [r4, #0]
 80006ae:	4b24      	ldr	r3, [pc, #144]	; (8000740 <HAL_I2C_MspInit+0xb0>)
 80006b0:	429a      	cmp	r2, r3
 80006b2:	d141      	bne.n	8000738 <HAL_I2C_MspInit+0xa8>
 80006b4:	2380      	movs	r3, #128	; 0x80
 80006b6:	9308      	str	r3, [sp, #32]
 80006b8:	a808      	add	r0, sp, #32
 80006ba:	f44f 2340 	mov.w	r3, #786432	; 0xc0000
 80006be:	930e      	str	r3, [sp, #56]	; 0x38
 80006c0:	f001 f954 	bl	800196c <HAL_RCCEx_PeriphCLKConfig>
 80006c4:	b108      	cbz	r0, 80006ca <HAL_I2C_MspInit+0x3a>
 80006c6:	f7ff fe45 	bl	8000354 <Error_Handler>
 80006ca:	f04f 44b0 	mov.w	r4, #1476395008	; 0x58000000
 80006ce:	f44f 4900 	mov.w	r9, #32768	; 0x8000
 80006d2:	6ce3      	ldr	r3, [r4, #76]	; 0x4c
 80006d4:	f043 0301 	orr.w	r3, r3, #1
 80006d8:	64e3      	str	r3, [r4, #76]	; 0x4c
 80006da:	6ce3      	ldr	r3, [r4, #76]	; 0x4c
 80006dc:	f003 0301 	and.w	r3, r3, #1
 80006e0:	9302      	str	r3, [sp, #8]
 80006e2:	9b02      	ldr	r3, [sp, #8]
 80006e4:	6ce3      	ldr	r3, [r4, #76]	; 0x4c
 80006e6:	f043 0302 	orr.w	r3, r3, #2
 80006ea:	64e3      	str	r3, [r4, #76]	; 0x4c
 80006ec:	6ce3      	ldr	r3, [r4, #76]	; 0x4c
 80006ee:	f003 0302 	and.w	r3, r3, #2
 80006f2:	9301      	str	r3, [sp, #4]
 80006f4:	f04f 0812 	mov.w	r8, #18
 80006f8:	2701      	movs	r7, #1
 80006fa:	2600      	movs	r6, #0
 80006fc:	2504      	movs	r5, #4
 80006fe:	a903      	add	r1, sp, #12
 8000700:	f04f 4090 	mov.w	r0, #1207959552	; 0x48000000
 8000704:	9b01      	ldr	r3, [sp, #4]
 8000706:	9507      	str	r5, [sp, #28]
 8000708:	e9cd 9803 	strd	r9, r8, [sp, #12]
 800070c:	e9cd 7605 	strd	r7, r6, [sp, #20]
 8000710:	f000 f90c 	bl	800092c <HAL_GPIO_Init>
 8000714:	480b      	ldr	r0, [pc, #44]	; (8000744 <HAL_I2C_MspInit+0xb4>)
 8000716:	9507      	str	r5, [sp, #28]
 8000718:	a903      	add	r1, sp, #12
 800071a:	e9cd 9803 	strd	r9, r8, [sp, #12]
 800071e:	e9cd 7605 	strd	r7, r6, [sp, #20]
 8000722:	f000 f903 	bl	800092c <HAL_GPIO_Init>
 8000726:	6da3      	ldr	r3, [r4, #88]	; 0x58
 8000728:	f443 0380 	orr.w	r3, r3, #4194304	; 0x400000
 800072c:	65a3      	str	r3, [r4, #88]	; 0x58
 800072e:	6da3      	ldr	r3, [r4, #88]	; 0x58
 8000730:	f403 0380 	and.w	r3, r3, #4194304	; 0x400000
 8000734:	9300      	str	r3, [sp, #0]
 8000736:	9b00      	ldr	r3, [sp, #0]
 8000738:	b017      	add	sp, #92	; 0x5c
 800073a:	e8bd 83f0 	ldmia.w	sp!, {r4, r5, r6, r7, r8, r9, pc}
 800073e:	bf00      	nop
 8000740:	40005800 	.word	0x40005800
 8000744:	48000400 	.word	0x48000400

08000748 <NMI_Handler>:
 8000748:	e7fe      	b.n	8000748 <NMI_Handler>

0800074a <HardFault_Handler>:
 800074a:	e7fe      	b.n	800074a <HardFault_Handler>

0800074c <MemManage_Handler>:
 800074c:	e7fe      	b.n	800074c <MemManage_Handler>

0800074e <BusFault_Handler>:
 800074e:	e7fe      	b.n	800074e <BusFault_Handler>

08000750 <UsageFault_Handler>:
 8000750:	e7fe      	b.n	8000750 <UsageFault_Handler>

08000752 <SVC_Handler>:
 8000752:	4770      	bx	lr

08000754 <DebugMon_Handler>:
 8000754:	4770      	bx	lr

08000756 <PendSV_Handler>:
 8000756:	4770      	bx	lr

08000758 <SysTick_Handler>:
 8000758:	f000 b868 	b.w	800082c <HAL_IncTick>

0800075c <SystemInit>:
 800075c:	4770      	bx	lr
	...

08000760 <Reset_Handler>:
 8000760:	480d      	ldr	r0, [pc, #52]	; (8000798 <LoopForever+0x2>)
 8000762:	4685      	mov	sp, r0
 8000764:	f7ff fffa 	bl	800075c <SystemInit>
 8000768:	480c      	ldr	r0, [pc, #48]	; (800079c <LoopForever+0x6>)
 800076a:	490d      	ldr	r1, [pc, #52]	; (80007a0 <LoopForever+0xa>)
 800076c:	4a0d      	ldr	r2, [pc, #52]	; (80007a4 <LoopForever+0xe>)
 800076e:	2300      	movs	r3, #0
 8000770:	e002      	b.n	8000778 <LoopCopyDataInit>

08000772 <CopyDataInit>:
 8000772:	58d4      	ldr	r4, [r2, r3]
 8000774:	50c4      	str	r4, [r0, r3]
 8000776:	3304      	adds	r3, #4

08000778 <LoopCopyDataInit>:
 8000778:	18c4      	adds	r4, r0, r3
 800077a:	428c      	cmp	r4, r1
 800077c:	d3f9      	bcc.n	8000772 <CopyDataInit>
 800077e:	4a0a      	ldr	r2, [pc, #40]	; (80007a8 <LoopForever+0x12>)
 8000780:	4c0a      	ldr	r4, [pc, #40]	; (80007ac <LoopForever+0x16>)
 8000782:	2300      	movs	r3, #0
 8000784:	e001      	b.n	800078a <LoopFillZerobss>

08000786 <FillZerobss>:
 8000786:	6013      	str	r3, [r2, #0]
 8000788:	3204      	adds	r2, #4

0800078a <LoopFillZerobss>:
 800078a:	42a2      	cmp	r2, r4
 800078c:	d3fb      	bcc.n	8000786 <FillZerobss>
 800078e:	f001 f9c3 	bl	8001b18 <__libc_init_array>
 8000792:	f7ff fd25 	bl	80001e0 <main>

08000796 <LoopForever>:
 8000796:	e7fe      	b.n	8000796 <LoopForever>
 8000798:	20008000 	.word	0x20008000
 800079c:	20000000 	.word	0x20000000
 80007a0:	20000014 	.word	0x20000014
 80007a4:	08002984 	.word	0x08002984
 80007a8:	20000014 	.word	0x20000014
 80007ac:	20000488 	.word	0x20000488

080007b0 <ADC_IRQHandler>:
 80007b0:	e7fe      	b.n	80007b0 <ADC_IRQHandler>
	...

080007b4 <HAL_InitTick>:
 80007b4:	b538      	push	{r3, r4, r5, lr}
 80007b6:	4c10      	ldr	r4, [pc, #64]	; (80007f8 <HAL_InitTick+0x44>)
 80007b8:	7823      	ldrb	r3, [r4, #0]
 80007ba:	4605      	mov	r5, r0
 80007bc:	b90b      	cbnz	r3, 80007c2 <HAL_InitTick+0xe>
 80007be:	2001      	movs	r0, #1
 80007c0:	bd38      	pop	{r3, r4, r5, pc}
 80007c2:	f000 fd21 	bl	8001208 <HAL_RCC_GetHCLKFreq>
 80007c6:	7822      	ldrb	r2, [r4, #0]
 80007c8:	f44f 737a 	mov.w	r3, #1000	; 0x3e8
 80007cc:	fbb3 f3f2 	udiv	r3, r3, r2
 80007d0:	fbb0 f0f3 	udiv	r0, r0, r3
 80007d4:	f000 f894 	bl	8000900 <HAL_SYSTICK_Config>
 80007d8:	4604      	mov	r4, r0
 80007da:	2800      	cmp	r0, #0
 80007dc:	d1ef      	bne.n	80007be <HAL_InitTick+0xa>
 80007de:	2d0f      	cmp	r5, #15
 80007e0:	d8ed      	bhi.n	80007be <HAL_InitTick+0xa>
 80007e2:	4602      	mov	r2, r0
 80007e4:	4629      	mov	r1, r5
 80007e6:	f04f 30ff 	mov.w	r0, #4294967295	; 0xffffffff
 80007ea:	f000 f857 	bl	800089c <HAL_NVIC_SetPriority>
 80007ee:	4b03      	ldr	r3, [pc, #12]	; (80007fc <HAL_InitTick+0x48>)
 80007f0:	4620      	mov	r0, r4
 80007f2:	601d      	str	r5, [r3, #0]
 80007f4:	e7e4      	b.n	80007c0 <HAL_InitTick+0xc>
 80007f6:	bf00      	nop
 80007f8:	2000000c 	.word	0x2000000c
 80007fc:	20000010 	.word	0x20000010

08000800 <HAL_Init>:
 8000800:	b510      	push	{r4, lr}
 8000802:	2003      	movs	r0, #3
 8000804:	f000 f838 	bl	8000878 <HAL_NVIC_SetPriorityGrouping>
 8000808:	f000 fcfe 	bl	8001208 <HAL_RCC_GetHCLKFreq>
 800080c:	4b06      	ldr	r3, [pc, #24]	; (8000828 <HAL_Init+0x28>)
 800080e:	6018      	str	r0, [r3, #0]
 8000810:	200f      	movs	r0, #15
 8000812:	f7ff ffcf 	bl	80007b4 <HAL_InitTick>
 8000816:	4604      	mov	r4, r0
 8000818:	b918      	cbnz	r0, 8000822 <HAL_Init+0x22>
 800081a:	f7ff ff37 	bl	800068c <HAL_MspInit>
 800081e:	4620      	mov	r0, r4
 8000820:	bd10      	pop	{r4, pc}
 8000822:	2401      	movs	r4, #1
 8000824:	e7fb      	b.n	800081e <HAL_Init+0x1e>
 8000826:	bf00      	nop
 8000828:	20000008 	.word	0x20000008

0800082c <HAL_IncTick>:
 800082c:	4a03      	ldr	r2, [pc, #12]	; (800083c <HAL_IncTick+0x10>)
 800082e:	4b04      	ldr	r3, [pc, #16]	; (8000840 <HAL_IncTick+0x14>)
 8000830:	6811      	ldr	r1, [r2, #0]
 8000832:	781b      	ldrb	r3, [r3, #0]
 8000834:	440b      	add	r3, r1
 8000836:	6013      	str	r3, [r2, #0]
 8000838:	4770      	bx	lr
 800083a:	bf00      	nop
 800083c:	20000484 	.word	0x20000484
 8000840:	2000000c 	.word	0x2000000c

08000844 <HAL_GetTick>:
 8000844:	4b01      	ldr	r3, [pc, #4]	; (800084c <HAL_GetTick+0x8>)
 8000846:	6818      	ldr	r0, [r3, #0]
 8000848:	4770      	bx	lr
 800084a:	bf00      	nop
 800084c:	20000484 	.word	0x20000484

08000850 <HAL_Delay>:
 8000850:	b538      	push	{r3, r4, r5, lr}
 8000852:	4604      	mov	r4, r0
 8000854:	f7ff fff6 	bl	8000844 <HAL_GetTick>
 8000858:	1c63      	adds	r3, r4, #1
 800085a:	bf1c      	itt	ne
 800085c:	4b05      	ldrne	r3, [pc, #20]	; (8000874 <HAL_Delay+0x24>)
 800085e:	781b      	ldrbne	r3, [r3, #0]
 8000860:	4605      	mov	r5, r0
 8000862:	bf18      	it	ne
 8000864:	18e4      	addne	r4, r4, r3
 8000866:	f7ff ffed 	bl	8000844 <HAL_GetTick>
 800086a:	1b43      	subs	r3, r0, r5
 800086c:	42a3      	cmp	r3, r4
 800086e:	d3fa      	bcc.n	8000866 <HAL_Delay+0x16>
 8000870:	bd38      	pop	{r3, r4, r5, pc}
 8000872:	bf00      	nop
 8000874:	2000000c 	.word	0x2000000c

08000878 <HAL_NVIC_SetPriorityGrouping>:
 8000878:	4907      	ldr	r1, [pc, #28]	; (8000898 <HAL_NVIC_SetPriorityGrouping+0x20>)
 800087a:	68ca      	ldr	r2, [r1, #12]
 800087c:	f422 62e0 	bic.w	r2, r2, #1792	; 0x700
 8000880:	0203      	lsls	r3, r0, #8
 8000882:	0412      	lsls	r2, r2, #16
 8000884:	f403 63e0 	and.w	r3, r3, #1792	; 0x700
 8000888:	0c12      	lsrs	r2, r2, #16
 800088a:	4313      	orrs	r3, r2
 800088c:	f043 63bf 	orr.w	r3, r3, #100139008	; 0x5f80000
 8000890:	f443 3300 	orr.w	r3, r3, #131072	; 0x20000
 8000894:	60cb      	str	r3, [r1, #12]
 8000896:	4770      	bx	lr
 8000898:	e000ed00 	.word	0xe000ed00

0800089c <HAL_NVIC_SetPriority>:
 800089c:	4b16      	ldr	r3, [pc, #88]	; (80008f8 <HAL_NVIC_SetPriority+0x5c>)
 800089e:	b530      	push	{r4, r5, lr}
 80008a0:	68dc      	ldr	r4, [r3, #12]
 80008a2:	f3c4 2402 	ubfx	r4, r4, #8, #3
 80008a6:	f1c4 0307 	rsb	r3, r4, #7
 80008aa:	1d25      	adds	r5, r4, #4
 80008ac:	2b04      	cmp	r3, #4
 80008ae:	bf28      	it	cs
 80008b0:	2304      	movcs	r3, #4
 80008b2:	2d06      	cmp	r5, #6
 80008b4:	f04f 35ff 	mov.w	r5, #4294967295	; 0xffffffff
 80008b8:	fa05 f303 	lsl.w	r3, r5, r3
 80008bc:	bf8c      	ite	hi
 80008be:	3c03      	subhi	r4, #3
 80008c0:	2400      	movls	r4, #0
 80008c2:	ea21 0303 	bic.w	r3, r1, r3
 80008c6:	40a3      	lsls	r3, r4
 80008c8:	fa05 f404 	lsl.w	r4, r5, r4
 80008cc:	ea22 0204 	bic.w	r2, r2, r4
 80008d0:	2800      	cmp	r0, #0
 80008d2:	ea43 0302 	orr.w	r3, r3, r2
 80008d6:	bfac      	ite	ge
 80008d8:	f100 4060 	addge.w	r0, r0, #3758096384	; 0xe0000000
 80008dc:	4a07      	ldrlt	r2, [pc, #28]	; (80008fc <HAL_NVIC_SetPriority+0x60>)
 80008de:	ea4f 1303 	mov.w	r3, r3, lsl #4
 80008e2:	bfb8      	it	lt
 80008e4:	f000 000f 	andlt.w	r0, r0, #15
 80008e8:	b2db      	uxtb	r3, r3
 80008ea:	bfaa      	itet	ge
 80008ec:	f500 4061 	addge.w	r0, r0, #57600	; 0xe100
 80008f0:	5413      	strblt	r3, [r2, r0]
 80008f2:	f880 3300 	strbge.w	r3, [r0, #768]	; 0x300
 80008f6:	bd30      	pop	{r4, r5, pc}
 80008f8:	e000ed00 	.word	0xe000ed00
 80008fc:	e000ed14 	.word	0xe000ed14

08000900 <HAL_SYSTICK_Config>:
 8000900:	3801      	subs	r0, #1
 8000902:	f1b0 7f80 	cmp.w	r0, #16777216	; 0x1000000
 8000906:	d20a      	bcs.n	800091e <HAL_SYSTICK_Config+0x1e>
 8000908:	4b06      	ldr	r3, [pc, #24]	; (8000924 <HAL_SYSTICK_Config+0x24>)
 800090a:	4a07      	ldr	r2, [pc, #28]	; (8000928 <HAL_SYSTICK_Config+0x28>)
 800090c:	6058      	str	r0, [r3, #4]
 800090e:	21f0      	movs	r1, #240	; 0xf0
 8000910:	f882 1023 	strb.w	r1, [r2, #35]	; 0x23
 8000914:	2000      	movs	r0, #0
 8000916:	2207      	movs	r2, #7
 8000918:	6098      	str	r0, [r3, #8]
 800091a:	601a      	str	r2, [r3, #0]
 800091c:	4770      	bx	lr
 800091e:	2001      	movs	r0, #1
 8000920:	4770      	bx	lr
 8000922:	bf00      	nop
 8000924:	e000e010 	.word	0xe000e010
 8000928:	e000ed00 	.word	0xe000ed00

0800092c <HAL_GPIO_Init>:
 800092c:	e92d 4ff0 	stmdb	sp!, {r4, r5, r6, r7, r8, r9, sl, fp, lr}
 8000930:	4c52      	ldr	r4, [pc, #328]	; (8000a7c <HAL_GPIO_Init+0x150>)
 8000932:	2300      	movs	r3, #0
 8000934:	f04f 0801 	mov.w	r8, #1
 8000938:	f04f 090f 	mov.w	r9, #15
 800093c:	680a      	ldr	r2, [r1, #0]
 800093e:	fa32 f503 	lsrs.w	r5, r2, r3
 8000942:	d101      	bne.n	8000948 <HAL_GPIO_Init+0x1c>
 8000944:	e8bd 8ff0 	ldmia.w	sp!, {r4, r5, r6, r7, r8, r9, sl, fp, pc}
 8000948:	fa08 fe03 	lsl.w	lr, r8, r3
 800094c:	ea1e 0202 	ands.w	r2, lr, r2
 8000950:	f000 808e 	beq.w	8000a70 <HAL_GPIO_Init+0x144>
 8000954:	684d      	ldr	r5, [r1, #4]
 8000956:	f025 0a10 	bic.w	sl, r5, #16
 800095a:	ea4f 0c43 	mov.w	ip, r3, lsl #1
 800095e:	2603      	movs	r6, #3
 8000960:	f10a 37ff 	add.w	r7, sl, #4294967295	; 0xffffffff
 8000964:	fa06 f60c 	lsl.w	r6, r6, ip
 8000968:	2f01      	cmp	r7, #1
 800096a:	ea6f 0606 	mvn.w	r6, r6
 800096e:	d811      	bhi.n	8000994 <HAL_GPIO_Init+0x68>
 8000970:	6887      	ldr	r7, [r0, #8]
 8000972:	ea07 0b06 	and.w	fp, r7, r6
 8000976:	68cf      	ldr	r7, [r1, #12]
 8000978:	fa07 f70c 	lsl.w	r7, r7, ip
 800097c:	ea47 070b 	orr.w	r7, r7, fp
 8000980:	6087      	str	r7, [r0, #8]
 8000982:	6847      	ldr	r7, [r0, #4]
 8000984:	ea27 0e0e 	bic.w	lr, r7, lr
 8000988:	f3c5 1700 	ubfx	r7, r5, #4, #1
 800098c:	409f      	lsls	r7, r3
 800098e:	ea47 070e 	orr.w	r7, r7, lr
 8000992:	6047      	str	r7, [r0, #4]
 8000994:	68c7      	ldr	r7, [r0, #12]
 8000996:	ea07 0e06 	and.w	lr, r7, r6
 800099a:	688f      	ldr	r7, [r1, #8]
 800099c:	fa07 f70c 	lsl.w	r7, r7, ip
 80009a0:	ea47 070e 	orr.w	r7, r7, lr
 80009a4:	f1ba 0f02 	cmp.w	sl, #2
 80009a8:	60c7      	str	r7, [r0, #12]
 80009aa:	d114      	bne.n	80009d6 <HAL_GPIO_Init+0xaa>
 80009ac:	ea4f 0ed3 	mov.w	lr, r3, lsr #3
 80009b0:	eb00 0e8e 	add.w	lr, r0, lr, lsl #2
 80009b4:	f003 0a07 	and.w	sl, r3, #7
 80009b8:	f8de 7020 	ldr.w	r7, [lr, #32]
 80009bc:	ea4f 0a8a 	mov.w	sl, sl, lsl #2
 80009c0:	fa09 fb0a 	lsl.w	fp, r9, sl
 80009c4:	ea27 0b0b 	bic.w	fp, r7, fp
 80009c8:	690f      	ldr	r7, [r1, #16]
 80009ca:	fa07 f70a 	lsl.w	r7, r7, sl
 80009ce:	ea47 070b 	orr.w	r7, r7, fp
 80009d2:	f8ce 7020 	str.w	r7, [lr, #32]
 80009d6:	6807      	ldr	r7, [r0, #0]
 80009d8:	403e      	ands	r6, r7
 80009da:	f005 0703 	and.w	r7, r5, #3
 80009de:	fa07 fc0c 	lsl.w	ip, r7, ip
 80009e2:	ea4c 0606 	orr.w	r6, ip, r6
 80009e6:	6006      	str	r6, [r0, #0]
 80009e8:	00ee      	lsls	r6, r5, #3
 80009ea:	d541      	bpl.n	8000a70 <HAL_GPIO_Init+0x144>
 80009ec:	f023 0703 	bic.w	r7, r3, #3
 80009f0:	f107 4780 	add.w	r7, r7, #1073741824	; 0x40000000
 80009f4:	f507 3780 	add.w	r7, r7, #65536	; 0x10000
 80009f8:	f003 0c03 	and.w	ip, r3, #3
 80009fc:	68be      	ldr	r6, [r7, #8]
 80009fe:	ea4f 0c8c 	mov.w	ip, ip, lsl #2
 8000a02:	f04f 0e07 	mov.w	lr, #7
 8000a06:	fa0e fe0c 	lsl.w	lr, lr, ip
 8000a0a:	f1b0 4f90 	cmp.w	r0, #1207959552	; 0x48000000
 8000a0e:	ea26 0e0e 	bic.w	lr, r6, lr
 8000a12:	d02f      	beq.n	8000a74 <HAL_GPIO_Init+0x148>
 8000a14:	4e1a      	ldr	r6, [pc, #104]	; (8000a80 <HAL_GPIO_Init+0x154>)
 8000a16:	42b0      	cmp	r0, r6
 8000a18:	d02e      	beq.n	8000a78 <HAL_GPIO_Init+0x14c>
 8000a1a:	f506 6680 	add.w	r6, r6, #1024	; 0x400
 8000a1e:	42b0      	cmp	r0, r6
 8000a20:	bf0c      	ite	eq
 8000a22:	2602      	moveq	r6, #2
 8000a24:	2607      	movne	r6, #7
 8000a26:	fa06 f60c 	lsl.w	r6, r6, ip
 8000a2a:	ea46 060e 	orr.w	r6, r6, lr
 8000a2e:	60be      	str	r6, [r7, #8]
 8000a30:	f8d4 6080 	ldr.w	r6, [r4, #128]	; 0x80
 8000a34:	43d7      	mvns	r7, r2
 8000a36:	f415 3f80 	tst.w	r5, #65536	; 0x10000
 8000a3a:	bf0c      	ite	eq
 8000a3c:	403e      	andeq	r6, r7
 8000a3e:	4316      	orrne	r6, r2
 8000a40:	f8c4 6080 	str.w	r6, [r4, #128]	; 0x80
 8000a44:	f8d4 6084 	ldr.w	r6, [r4, #132]	; 0x84
 8000a48:	f415 3f00 	tst.w	r5, #131072	; 0x20000
 8000a4c:	bf0c      	ite	eq
 8000a4e:	403e      	andeq	r6, r7
 8000a50:	4316      	orrne	r6, r2
 8000a52:	f8c4 6084 	str.w	r6, [r4, #132]	; 0x84
 8000a56:	6826      	ldr	r6, [r4, #0]
 8000a58:	f415 1f80 	tst.w	r5, #1048576	; 0x100000
 8000a5c:	bf0c      	ite	eq
 8000a5e:	403e      	andeq	r6, r7
 8000a60:	4316      	orrne	r6, r2
 8000a62:	6026      	str	r6, [r4, #0]
 8000a64:	6866      	ldr	r6, [r4, #4]
 8000a66:	02ad      	lsls	r5, r5, #10
 8000a68:	bf54      	ite	pl
 8000a6a:	403e      	andpl	r6, r7
 8000a6c:	4316      	orrmi	r6, r2
 8000a6e:	6066      	str	r6, [r4, #4]
 8000a70:	3301      	adds	r3, #1
 8000a72:	e763      	b.n	800093c <HAL_GPIO_Init+0x10>
 8000a74:	2600      	movs	r6, #0
 8000a76:	e7d6      	b.n	8000a26 <HAL_GPIO_Init+0xfa>
 8000a78:	2601      	movs	r6, #1
 8000a7a:	e7d4      	b.n	8000a26 <HAL_GPIO_Init+0xfa>
 8000a7c:	58000800 	.word	0x58000800
 8000a80:	48000400 	.word	0x48000400

08000a84 <HAL_GPIO_ReadPin>:
 8000a84:	6903      	ldr	r3, [r0, #16]
 8000a86:	4219      	tst	r1, r3
 8000a88:	bf14      	ite	ne
 8000a8a:	2001      	movne	r0, #1
 8000a8c:	2000      	moveq	r0, #0
 8000a8e:	4770      	bx	lr

08000a90 <HAL_GPIO_WritePin>:
 8000a90:	b10a      	cbz	r2, 8000a96 <HAL_GPIO_WritePin+0x6>
 8000a92:	6181      	str	r1, [r0, #24]
 8000a94:	4770      	bx	lr
 8000a96:	6281      	str	r1, [r0, #40]	; 0x28
 8000a98:	4770      	bx	lr

08000a9a <HAL_GPIO_TogglePin>:
 8000a9a:	6943      	ldr	r3, [r0, #20]
 8000a9c:	ea01 0203 	and.w	r2, r1, r3
 8000aa0:	ea21 0103 	bic.w	r1, r1, r3
 8000aa4:	ea41 4102 	orr.w	r1, r1, r2, lsl #16
 8000aa8:	6181      	str	r1, [r0, #24]
 8000aaa:	4770      	bx	lr

08000aac <I2C_Flush_TXDR>:
 8000aac:	6803      	ldr	r3, [r0, #0]
 8000aae:	699a      	ldr	r2, [r3, #24]
 8000ab0:	0791      	lsls	r1, r2, #30
 8000ab2:	bf44      	itt	mi
 8000ab4:	2200      	movmi	r2, #0
 8000ab6:	629a      	strmi	r2, [r3, #40]	; 0x28
 8000ab8:	699a      	ldr	r2, [r3, #24]
 8000aba:	07d2      	lsls	r2, r2, #31
 8000abc:	bf5e      	ittt	pl
 8000abe:	699a      	ldrpl	r2, [r3, #24]
 8000ac0:	f042 0201 	orrpl.w	r2, r2, #1
 8000ac4:	619a      	strpl	r2, [r3, #24]
 8000ac6:	4770      	bx	lr

08000ac8 <I2C_TransferConfig>:
 8000ac8:	b530      	push	{r4, r5, lr}
 8000aca:	9d03      	ldr	r5, [sp, #12]
 8000acc:	6804      	ldr	r4, [r0, #0]
 8000ace:	ea45 4202 	orr.w	r2, r5, r2, lsl #16
 8000ad2:	431a      	orrs	r2, r3
 8000ad4:	4b05      	ldr	r3, [pc, #20]	; (8000aec <I2C_TransferConfig+0x24>)
 8000ad6:	6860      	ldr	r0, [r4, #4]
 8000ad8:	f3c1 0109 	ubfx	r1, r1, #0, #10
 8000adc:	ea43 5355 	orr.w	r3, r3, r5, lsr #21
 8000ae0:	430a      	orrs	r2, r1
 8000ae2:	ea20 0003 	bic.w	r0, r0, r3
 8000ae6:	4302      	orrs	r2, r0
 8000ae8:	6062      	str	r2, [r4, #4]
 8000aea:	bd30      	pop	{r4, r5, pc}
 8000aec:	03ff63ff 	.word	0x03ff63ff

08000af0 <I2C_IsAcknowledgeFailed>:
 8000af0:	6803      	ldr	r3, [r0, #0]
 8000af2:	b570      	push	{r4, r5, r6, lr}
 8000af4:	4604      	mov	r4, r0
 8000af6:	6998      	ldr	r0, [r3, #24]
 8000af8:	f010 0010 	ands.w	r0, r0, #16
 8000afc:	460d      	mov	r5, r1
 8000afe:	4616      	mov	r6, r2
 8000b00:	d116      	bne.n	8000b30 <I2C_IsAcknowledgeFailed+0x40>
 8000b02:	bd70      	pop	{r4, r5, r6, pc}
 8000b04:	1c69      	adds	r1, r5, #1
 8000b06:	d014      	beq.n	8000b32 <I2C_IsAcknowledgeFailed+0x42>
 8000b08:	f7ff fe9c 	bl	8000844 <HAL_GetTick>
 8000b0c:	1b80      	subs	r0, r0, r6
 8000b0e:	42a8      	cmp	r0, r5
 8000b10:	d800      	bhi.n	8000b14 <I2C_IsAcknowledgeFailed+0x24>
 8000b12:	b96d      	cbnz	r5, 8000b30 <I2C_IsAcknowledgeFailed+0x40>
 8000b14:	6c63      	ldr	r3, [r4, #68]	; 0x44
 8000b16:	f043 0320 	orr.w	r3, r3, #32
 8000b1a:	6463      	str	r3, [r4, #68]	; 0x44
 8000b1c:	2320      	movs	r3, #32
 8000b1e:	f884 3041 	strb.w	r3, [r4, #65]	; 0x41
 8000b22:	2300      	movs	r3, #0
 8000b24:	f884 3042 	strb.w	r3, [r4, #66]	; 0x42
 8000b28:	f884 3040 	strb.w	r3, [r4, #64]	; 0x40
 8000b2c:	2001      	movs	r0, #1
 8000b2e:	e7e8      	b.n	8000b02 <I2C_IsAcknowledgeFailed+0x12>
 8000b30:	6823      	ldr	r3, [r4, #0]
 8000b32:	699a      	ldr	r2, [r3, #24]
 8000b34:	0692      	lsls	r2, r2, #26
 8000b36:	d5e5      	bpl.n	8000b04 <I2C_IsAcknowledgeFailed+0x14>
 8000b38:	2210      	movs	r2, #16
 8000b3a:	2520      	movs	r5, #32
 8000b3c:	61da      	str	r2, [r3, #28]
 8000b3e:	4620      	mov	r0, r4
 8000b40:	61dd      	str	r5, [r3, #28]
 8000b42:	f7ff ffb3 	bl	8000aac <I2C_Flush_TXDR>
 8000b46:	6822      	ldr	r2, [r4, #0]
 8000b48:	6853      	ldr	r3, [r2, #4]
 8000b4a:	f023 73ff 	bic.w	r3, r3, #33423360	; 0x1fe0000
 8000b4e:	f423 338b 	bic.w	r3, r3, #71168	; 0x11600
 8000b52:	f423 73ff 	bic.w	r3, r3, #510	; 0x1fe
 8000b56:	f023 0301 	bic.w	r3, r3, #1
 8000b5a:	6053      	str	r3, [r2, #4]
 8000b5c:	6c63      	ldr	r3, [r4, #68]	; 0x44
 8000b5e:	f043 0304 	orr.w	r3, r3, #4
 8000b62:	6463      	str	r3, [r4, #68]	; 0x44
 8000b64:	f884 5041 	strb.w	r5, [r4, #65]	; 0x41
 8000b68:	e7db      	b.n	8000b22 <I2C_IsAcknowledgeFailed+0x32>

08000b6a <I2C_WaitOnSTOPFlagUntilTimeout>:
 8000b6a:	b570      	push	{r4, r5, r6, lr}
 8000b6c:	4604      	mov	r4, r0
 8000b6e:	460d      	mov	r5, r1
 8000b70:	4616      	mov	r6, r2
 8000b72:	6823      	ldr	r3, [r4, #0]
 8000b74:	699b      	ldr	r3, [r3, #24]
 8000b76:	069b      	lsls	r3, r3, #26
 8000b78:	d501      	bpl.n	8000b7e <I2C_WaitOnSTOPFlagUntilTimeout+0x14>
 8000b7a:	2000      	movs	r0, #0
 8000b7c:	bd70      	pop	{r4, r5, r6, pc}
 8000b7e:	4632      	mov	r2, r6
 8000b80:	4629      	mov	r1, r5
 8000b82:	4620      	mov	r0, r4
 8000b84:	f7ff ffb4 	bl	8000af0 <I2C_IsAcknowledgeFailed>
 8000b88:	b990      	cbnz	r0, 8000bb0 <I2C_WaitOnSTOPFlagUntilTimeout+0x46>
 8000b8a:	f7ff fe5b 	bl	8000844 <HAL_GetTick>
 8000b8e:	1b80      	subs	r0, r0, r6
 8000b90:	42a8      	cmp	r0, r5
 8000b92:	d801      	bhi.n	8000b98 <I2C_WaitOnSTOPFlagUntilTimeout+0x2e>
 8000b94:	2d00      	cmp	r5, #0
 8000b96:	d1ec      	bne.n	8000b72 <I2C_WaitOnSTOPFlagUntilTimeout+0x8>
 8000b98:	6c63      	ldr	r3, [r4, #68]	; 0x44
 8000b9a:	f043 0320 	orr.w	r3, r3, #32
 8000b9e:	6463      	str	r3, [r4, #68]	; 0x44
 8000ba0:	2320      	movs	r3, #32
 8000ba2:	f884 3041 	strb.w	r3, [r4, #65]	; 0x41
 8000ba6:	2300      	movs	r3, #0
 8000ba8:	f884 3042 	strb.w	r3, [r4, #66]	; 0x42
 8000bac:	f884 3040 	strb.w	r3, [r4, #64]	; 0x40
 8000bb0:	2001      	movs	r0, #1
 8000bb2:	e7e3      	b.n	8000b7c <I2C_WaitOnSTOPFlagUntilTimeout+0x12>

08000bb4 <I2C_WaitOnFlagUntilTimeout>:
 8000bb4:	e92d 41f0 	stmdb	sp!, {r4, r5, r6, r7, r8, lr}
 8000bb8:	9f06      	ldr	r7, [sp, #24]
 8000bba:	4604      	mov	r4, r0
 8000bbc:	4688      	mov	r8, r1
 8000bbe:	4616      	mov	r6, r2
 8000bc0:	461d      	mov	r5, r3
 8000bc2:	6822      	ldr	r2, [r4, #0]
 8000bc4:	6993      	ldr	r3, [r2, #24]
 8000bc6:	ea38 0303 	bics.w	r3, r8, r3
 8000bca:	bf0c      	ite	eq
 8000bcc:	2301      	moveq	r3, #1
 8000bce:	2300      	movne	r3, #0
 8000bd0:	42b3      	cmp	r3, r6
 8000bd2:	d001      	beq.n	8000bd8 <I2C_WaitOnFlagUntilTimeout+0x24>
 8000bd4:	2000      	movs	r0, #0
 8000bd6:	e015      	b.n	8000c04 <I2C_WaitOnFlagUntilTimeout+0x50>
 8000bd8:	1c6b      	adds	r3, r5, #1
 8000bda:	d0f3      	beq.n	8000bc4 <I2C_WaitOnFlagUntilTimeout+0x10>
 8000bdc:	f7ff fe32 	bl	8000844 <HAL_GetTick>
 8000be0:	1bc0      	subs	r0, r0, r7
 8000be2:	42a8      	cmp	r0, r5
 8000be4:	d801      	bhi.n	8000bea <I2C_WaitOnFlagUntilTimeout+0x36>
 8000be6:	2d00      	cmp	r5, #0
 8000be8:	d1eb      	bne.n	8000bc2 <I2C_WaitOnFlagUntilTimeout+0xe>
 8000bea:	6c63      	ldr	r3, [r4, #68]	; 0x44
 8000bec:	f043 0320 	orr.w	r3, r3, #32
 8000bf0:	6463      	str	r3, [r4, #68]	; 0x44
 8000bf2:	2320      	movs	r3, #32
 8000bf4:	f884 3041 	strb.w	r3, [r4, #65]	; 0x41
 8000bf8:	2300      	movs	r3, #0
 8000bfa:	f884 3042 	strb.w	r3, [r4, #66]	; 0x42
 8000bfe:	f884 3040 	strb.w	r3, [r4, #64]	; 0x40
 8000c02:	2001      	movs	r0, #1
 8000c04:	e8bd 81f0 	ldmia.w	sp!, {r4, r5, r6, r7, r8, pc}

08000c08 <I2C_WaitOnTXISFlagUntilTimeout>:
 8000c08:	b570      	push	{r4, r5, r6, lr}
 8000c0a:	4604      	mov	r4, r0
 8000c0c:	460d      	mov	r5, r1
 8000c0e:	4616      	mov	r6, r2
 8000c10:	6823      	ldr	r3, [r4, #0]
 8000c12:	699b      	ldr	r3, [r3, #24]
 8000c14:	079b      	lsls	r3, r3, #30
 8000c16:	d501      	bpl.n	8000c1c <I2C_WaitOnTXISFlagUntilTimeout+0x14>
 8000c18:	2000      	movs	r0, #0
 8000c1a:	bd70      	pop	{r4, r5, r6, pc}
 8000c1c:	4632      	mov	r2, r6
 8000c1e:	4629      	mov	r1, r5
 8000c20:	4620      	mov	r0, r4
 8000c22:	f7ff ff65 	bl	8000af0 <I2C_IsAcknowledgeFailed>
 8000c26:	b9a0      	cbnz	r0, 8000c52 <I2C_WaitOnTXISFlagUntilTimeout+0x4a>
 8000c28:	1c6a      	adds	r2, r5, #1
 8000c2a:	d0f1      	beq.n	8000c10 <I2C_WaitOnTXISFlagUntilTimeout+0x8>
 8000c2c:	f7ff fe0a 	bl	8000844 <HAL_GetTick>
 8000c30:	1b80      	subs	r0, r0, r6
 8000c32:	42a8      	cmp	r0, r5
 8000c34:	d801      	bhi.n	8000c3a <I2C_WaitOnTXISFlagUntilTimeout+0x32>
 8000c36:	2d00      	cmp	r5, #0
 8000c38:	d1ea      	bne.n	8000c10 <I2C_WaitOnTXISFlagUntilTimeout+0x8>
 8000c3a:	6c63      	ldr	r3, [r4, #68]	; 0x44
 8000c3c:	f043 0320 	orr.w	r3, r3, #32
 8000c40:	6463      	str	r3, [r4, #68]	; 0x44
 8000c42:	2320      	movs	r3, #32
 8000c44:	f884 3041 	strb.w	r3, [r4, #65]	; 0x41
 8000c48:	2300      	movs	r3, #0
 8000c4a:	f884 3042 	strb.w	r3, [r4, #66]	; 0x42
 8000c4e:	f884 3040 	strb.w	r3, [r4, #64]	; 0x40
 8000c52:	2001      	movs	r0, #1
 8000c54:	e7e1      	b.n	8000c1a <I2C_WaitOnTXISFlagUntilTimeout+0x12>

08000c56 <HAL_I2C_Init>:
 8000c56:	b510      	push	{r4, lr}
 8000c58:	4604      	mov	r4, r0
 8000c5a:	2800      	cmp	r0, #0
 8000c5c:	d04a      	beq.n	8000cf4 <HAL_I2C_Init+0x9e>
 8000c5e:	f890 3041 	ldrb.w	r3, [r0, #65]	; 0x41
 8000c62:	f003 02ff 	and.w	r2, r3, #255	; 0xff
 8000c66:	b91b      	cbnz	r3, 8000c70 <HAL_I2C_Init+0x1a>
 8000c68:	f880 2040 	strb.w	r2, [r0, #64]	; 0x40
 8000c6c:	f7ff fd10 	bl	8000690 <HAL_I2C_MspInit>
 8000c70:	2324      	movs	r3, #36	; 0x24
 8000c72:	f884 3041 	strb.w	r3, [r4, #65]	; 0x41
 8000c76:	6823      	ldr	r3, [r4, #0]
 8000c78:	681a      	ldr	r2, [r3, #0]
 8000c7a:	f022 0201 	bic.w	r2, r2, #1
 8000c7e:	601a      	str	r2, [r3, #0]
 8000c80:	6862      	ldr	r2, [r4, #4]
 8000c82:	f022 6270 	bic.w	r2, r2, #251658240	; 0xf000000
 8000c86:	611a      	str	r2, [r3, #16]
 8000c88:	689a      	ldr	r2, [r3, #8]
 8000c8a:	f422 4200 	bic.w	r2, r2, #32768	; 0x8000
 8000c8e:	609a      	str	r2, [r3, #8]
 8000c90:	e9d4 2102 	ldrd	r2, r1, [r4, #8]
 8000c94:	2901      	cmp	r1, #1
 8000c96:	d124      	bne.n	8000ce2 <HAL_I2C_Init+0x8c>
 8000c98:	f442 4200 	orr.w	r2, r2, #32768	; 0x8000
 8000c9c:	609a      	str	r2, [r3, #8]
 8000c9e:	685a      	ldr	r2, [r3, #4]
 8000ca0:	f042 7200 	orr.w	r2, r2, #33554432	; 0x2000000
 8000ca4:	f442 4200 	orr.w	r2, r2, #32768	; 0x8000
 8000ca8:	605a      	str	r2, [r3, #4]
 8000caa:	68da      	ldr	r2, [r3, #12]
 8000cac:	f422 4200 	bic.w	r2, r2, #32768	; 0x8000
 8000cb0:	60da      	str	r2, [r3, #12]
 8000cb2:	e9d4 2104 	ldrd	r2, r1, [r4, #16]
 8000cb6:	430a      	orrs	r2, r1
 8000cb8:	69a1      	ldr	r1, [r4, #24]
 8000cba:	ea42 2201 	orr.w	r2, r2, r1, lsl #8
 8000cbe:	60da      	str	r2, [r3, #12]
 8000cc0:	e9d4 2107 	ldrd	r2, r1, [r4, #28]
 8000cc4:	430a      	orrs	r2, r1
 8000cc6:	601a      	str	r2, [r3, #0]
 8000cc8:	681a      	ldr	r2, [r3, #0]
 8000cca:	f042 0201 	orr.w	r2, r2, #1
 8000cce:	601a      	str	r2, [r3, #0]
 8000cd0:	2000      	movs	r0, #0
 8000cd2:	2320      	movs	r3, #32
 8000cd4:	6460      	str	r0, [r4, #68]	; 0x44
 8000cd6:	f884 3041 	strb.w	r3, [r4, #65]	; 0x41
 8000cda:	6320      	str	r0, [r4, #48]	; 0x30
 8000cdc:	f884 0042 	strb.w	r0, [r4, #66]	; 0x42
 8000ce0:	bd10      	pop	{r4, pc}
 8000ce2:	f442 4204 	orr.w	r2, r2, #33792	; 0x8400
 8000ce6:	2902      	cmp	r1, #2
 8000ce8:	609a      	str	r2, [r3, #8]
 8000cea:	bf04      	itt	eq
 8000cec:	f44f 6200 	moveq.w	r2, #2048	; 0x800
 8000cf0:	605a      	streq	r2, [r3, #4]
 8000cf2:	e7d4      	b.n	8000c9e <HAL_I2C_Init+0x48>
 8000cf4:	2001      	movs	r0, #1
 8000cf6:	e7f3      	b.n	8000ce0 <HAL_I2C_Init+0x8a>

08000cf8 <HAL_I2C_Master_Transmit>:
 8000cf8:	e92d 47f3 	stmdb	sp!, {r0, r1, r4, r5, r6, r7, r8, r9, sl, lr}
 8000cfc:	4698      	mov	r8, r3
 8000cfe:	f890 3041 	ldrb.w	r3, [r0, #65]	; 0x41
 8000d02:	9f0a      	ldr	r7, [sp, #40]	; 0x28
 8000d04:	2b20      	cmp	r3, #32
 8000d06:	4604      	mov	r4, r0
 8000d08:	460e      	mov	r6, r1
 8000d0a:	4691      	mov	r9, r2
 8000d0c:	f040 8086 	bne.w	8000e1c <HAL_I2C_Master_Transmit+0x124>
 8000d10:	f890 3040 	ldrb.w	r3, [r0, #64]	; 0x40
 8000d14:	2b01      	cmp	r3, #1
 8000d16:	f000 8081 	beq.w	8000e1c <HAL_I2C_Master_Transmit+0x124>
 8000d1a:	f04f 0a01 	mov.w	sl, #1
 8000d1e:	f880 a040 	strb.w	sl, [r0, #64]	; 0x40
 8000d22:	f7ff fd8f 	bl	8000844 <HAL_GetTick>
 8000d26:	2319      	movs	r3, #25
 8000d28:	4605      	mov	r5, r0
 8000d2a:	9000      	str	r0, [sp, #0]
 8000d2c:	4652      	mov	r2, sl
 8000d2e:	f44f 4100 	mov.w	r1, #32768	; 0x8000
 8000d32:	4620      	mov	r0, r4
 8000d34:	f7ff ff3e 	bl	8000bb4 <I2C_WaitOnFlagUntilTimeout>
 8000d38:	b118      	cbz	r0, 8000d42 <HAL_I2C_Master_Transmit+0x4a>
 8000d3a:	2001      	movs	r0, #1
 8000d3c:	b002      	add	sp, #8
 8000d3e:	e8bd 87f0 	ldmia.w	sp!, {r4, r5, r6, r7, r8, r9, sl, pc}
 8000d42:	2321      	movs	r3, #33	; 0x21
 8000d44:	f884 3041 	strb.w	r3, [r4, #65]	; 0x41
 8000d48:	2310      	movs	r3, #16
 8000d4a:	f884 3042 	strb.w	r3, [r4, #66]	; 0x42
 8000d4e:	6460      	str	r0, [r4, #68]	; 0x44
 8000d50:	f8a4 802a 	strh.w	r8, [r4, #42]	; 0x2a
 8000d54:	8d63      	ldrh	r3, [r4, #42]	; 0x2a
 8000d56:	f8c4 9024 	str.w	r9, [r4, #36]	; 0x24
 8000d5a:	b29b      	uxth	r3, r3
 8000d5c:	2bff      	cmp	r3, #255	; 0xff
 8000d5e:	6360      	str	r0, [r4, #52]	; 0x34
 8000d60:	4b2f      	ldr	r3, [pc, #188]	; (8000e20 <HAL_I2C_Master_Transmit+0x128>)
 8000d62:	d926      	bls.n	8000db2 <HAL_I2C_Master_Transmit+0xba>
 8000d64:	22ff      	movs	r2, #255	; 0xff
 8000d66:	8522      	strh	r2, [r4, #40]	; 0x28
 8000d68:	9300      	str	r3, [sp, #0]
 8000d6a:	f04f 7380 	mov.w	r3, #16777216	; 0x1000000
 8000d6e:	4631      	mov	r1, r6
 8000d70:	4620      	mov	r0, r4
 8000d72:	f7ff fea9 	bl	8000ac8 <I2C_TransferConfig>
 8000d76:	8d63      	ldrh	r3, [r4, #42]	; 0x2a
 8000d78:	b29b      	uxth	r3, r3
 8000d7a:	462a      	mov	r2, r5
 8000d7c:	4639      	mov	r1, r7
 8000d7e:	4620      	mov	r0, r4
 8000d80:	b9fb      	cbnz	r3, 8000dc2 <HAL_I2C_Master_Transmit+0xca>
 8000d82:	f7ff fef2 	bl	8000b6a <I2C_WaitOnSTOPFlagUntilTimeout>
 8000d86:	2800      	cmp	r0, #0
 8000d88:	d1d7      	bne.n	8000d3a <HAL_I2C_Master_Transmit+0x42>
 8000d8a:	6823      	ldr	r3, [r4, #0]
 8000d8c:	2120      	movs	r1, #32
 8000d8e:	61d9      	str	r1, [r3, #28]
 8000d90:	685a      	ldr	r2, [r3, #4]
 8000d92:	f022 72ff 	bic.w	r2, r2, #33423360	; 0x1fe0000
 8000d96:	f422 328b 	bic.w	r2, r2, #71168	; 0x11600
 8000d9a:	f422 72ff 	bic.w	r2, r2, #510	; 0x1fe
 8000d9e:	f022 0201 	bic.w	r2, r2, #1
 8000da2:	605a      	str	r2, [r3, #4]
 8000da4:	f884 1041 	strb.w	r1, [r4, #65]	; 0x41
 8000da8:	f884 0040 	strb.w	r0, [r4, #64]	; 0x40
 8000dac:	f884 0042 	strb.w	r0, [r4, #66]	; 0x42
 8000db0:	e7c4      	b.n	8000d3c <HAL_I2C_Master_Transmit+0x44>
 8000db2:	8d62      	ldrh	r2, [r4, #42]	; 0x2a
 8000db4:	9300      	str	r3, [sp, #0]
 8000db6:	b292      	uxth	r2, r2
 8000db8:	8522      	strh	r2, [r4, #40]	; 0x28
 8000dba:	f04f 7300 	mov.w	r3, #33554432	; 0x2000000
 8000dbe:	b2d2      	uxtb	r2, r2
 8000dc0:	e7d5      	b.n	8000d6e <HAL_I2C_Master_Transmit+0x76>
 8000dc2:	f7ff ff21 	bl	8000c08 <I2C_WaitOnTXISFlagUntilTimeout>
 8000dc6:	2800      	cmp	r0, #0
 8000dc8:	d1b7      	bne.n	8000d3a <HAL_I2C_Master_Transmit+0x42>
 8000dca:	6a63      	ldr	r3, [r4, #36]	; 0x24
 8000dcc:	6822      	ldr	r2, [r4, #0]
 8000dce:	f813 1b01 	ldrb.w	r1, [r3], #1
 8000dd2:	6291      	str	r1, [r2, #40]	; 0x28
 8000dd4:	6263      	str	r3, [r4, #36]	; 0x24
 8000dd6:	8d63      	ldrh	r3, [r4, #42]	; 0x2a
 8000dd8:	8d22      	ldrh	r2, [r4, #40]	; 0x28
 8000dda:	3b01      	subs	r3, #1
 8000ddc:	b29b      	uxth	r3, r3
 8000dde:	8563      	strh	r3, [r4, #42]	; 0x2a
 8000de0:	8d63      	ldrh	r3, [r4, #42]	; 0x2a
 8000de2:	3a01      	subs	r2, #1
 8000de4:	b292      	uxth	r2, r2
 8000de6:	b29b      	uxth	r3, r3
 8000de8:	8522      	strh	r2, [r4, #40]	; 0x28
 8000dea:	2b00      	cmp	r3, #0
 8000dec:	d0c3      	beq.n	8000d76 <HAL_I2C_Master_Transmit+0x7e>
 8000dee:	2a00      	cmp	r2, #0
 8000df0:	d1c1      	bne.n	8000d76 <HAL_I2C_Master_Transmit+0x7e>
 8000df2:	9500      	str	r5, [sp, #0]
 8000df4:	463b      	mov	r3, r7
 8000df6:	2180      	movs	r1, #128	; 0x80
 8000df8:	4620      	mov	r0, r4
 8000dfa:	f7ff fedb 	bl	8000bb4 <I2C_WaitOnFlagUntilTimeout>
 8000dfe:	2800      	cmp	r0, #0
 8000e00:	d19b      	bne.n	8000d3a <HAL_I2C_Master_Transmit+0x42>
 8000e02:	8d63      	ldrh	r3, [r4, #42]	; 0x2a
 8000e04:	b29b      	uxth	r3, r3
 8000e06:	2bff      	cmp	r3, #255	; 0xff
 8000e08:	d903      	bls.n	8000e12 <HAL_I2C_Master_Transmit+0x11a>
 8000e0a:	22ff      	movs	r2, #255	; 0xff
 8000e0c:	8522      	strh	r2, [r4, #40]	; 0x28
 8000e0e:	9000      	str	r0, [sp, #0]
 8000e10:	e7ab      	b.n	8000d6a <HAL_I2C_Master_Transmit+0x72>
 8000e12:	8d62      	ldrh	r2, [r4, #42]	; 0x2a
 8000e14:	9000      	str	r0, [sp, #0]
 8000e16:	b292      	uxth	r2, r2
 8000e18:	8522      	strh	r2, [r4, #40]	; 0x28
 8000e1a:	e7ce      	b.n	8000dba <HAL_I2C_Master_Transmit+0xc2>
 8000e1c:	2002      	movs	r0, #2
 8000e1e:	e78d      	b.n	8000d3c <HAL_I2C_Master_Transmit+0x44>
 8000e20:	80002000 	.word	0x80002000

08000e24 <HAL_I2C_IsDeviceReady>:
 8000e24:	e92d 4ff0 	stmdb	sp!, {r4, r5, r6, r7, r8, r9, sl, fp, lr}
 8000e28:	b085      	sub	sp, #20
 8000e2a:	461e      	mov	r6, r3
 8000e2c:	2300      	movs	r3, #0
 8000e2e:	9303      	str	r3, [sp, #12]
 8000e30:	f890 3041 	ldrb.w	r3, [r0, #65]	; 0x41
 8000e34:	2b20      	cmp	r3, #32
 8000e36:	4604      	mov	r4, r0
 8000e38:	4691      	mov	r9, r2
 8000e3a:	f040 808e 	bne.w	8000f5a <HAL_I2C_IsDeviceReady+0x136>
 8000e3e:	6803      	ldr	r3, [r0, #0]
 8000e40:	699b      	ldr	r3, [r3, #24]
 8000e42:	f413 4300 	ands.w	r3, r3, #32768	; 0x8000
 8000e46:	f040 8088 	bne.w	8000f5a <HAL_I2C_IsDeviceReady+0x136>
 8000e4a:	f890 2040 	ldrb.w	r2, [r0, #64]	; 0x40
 8000e4e:	2a01      	cmp	r2, #1
 8000e50:	f000 8083 	beq.w	8000f5a <HAL_I2C_IsDeviceReady+0x136>
 8000e54:	2201      	movs	r2, #1
 8000e56:	f3c1 0709 	ubfx	r7, r1, #0, #10
 8000e5a:	f880 2040 	strb.w	r2, [r0, #64]	; 0x40
 8000e5e:	f047 7a00 	orr.w	sl, r7, #33554432	; 0x2000000
 8000e62:	2224      	movs	r2, #36	; 0x24
 8000e64:	f880 2041 	strb.w	r2, [r0, #65]	; 0x41
 8000e68:	f44a 5a00 	orr.w	sl, sl, #8192	; 0x2000
 8000e6c:	6443      	str	r3, [r0, #68]	; 0x44
 8000e6e:	68e3      	ldr	r3, [r4, #12]
 8000e70:	6822      	ldr	r2, [r4, #0]
 8000e72:	2b01      	cmp	r3, #1
 8000e74:	bf0c      	ite	eq
 8000e76:	4653      	moveq	r3, sl
 8000e78:	f447 5320 	orrne.w	r3, r7, #10240	; 0x2800
 8000e7c:	6053      	str	r3, [r2, #4]
 8000e7e:	f7ff fce1 	bl	8000844 <HAL_GetTick>
 8000e82:	4680      	mov	r8, r0
 8000e84:	6823      	ldr	r3, [r4, #0]
 8000e86:	699d      	ldr	r5, [r3, #24]
 8000e88:	699b      	ldr	r3, [r3, #24]
 8000e8a:	f3c5 1540 	ubfx	r5, r5, #5, #1
 8000e8e:	f3c3 1300 	ubfx	r3, r3, #4, #1
 8000e92:	431d      	orrs	r5, r3
 8000e94:	d015      	beq.n	8000ec2 <HAL_I2C_IsDeviceReady+0x9e>
 8000e96:	6823      	ldr	r3, [r4, #0]
 8000e98:	699a      	ldr	r2, [r3, #24]
 8000e9a:	f8cd 8000 	str.w	r8, [sp]
 8000e9e:	f012 0210 	ands.w	r2, r2, #16
 8000ea2:	4633      	mov	r3, r6
 8000ea4:	d126      	bne.n	8000ef4 <HAL_I2C_IsDeviceReady+0xd0>
 8000ea6:	2120      	movs	r1, #32
 8000ea8:	4620      	mov	r0, r4
 8000eaa:	f7ff fe83 	bl	8000bb4 <I2C_WaitOnFlagUntilTimeout>
 8000eae:	b9e8      	cbnz	r0, 8000eec <HAL_I2C_IsDeviceReady+0xc8>
 8000eb0:	6822      	ldr	r2, [r4, #0]
 8000eb2:	2320      	movs	r3, #32
 8000eb4:	61d3      	str	r3, [r2, #28]
 8000eb6:	4605      	mov	r5, r0
 8000eb8:	f884 3041 	strb.w	r3, [r4, #65]	; 0x41
 8000ebc:	f884 0040 	strb.w	r0, [r4, #64]	; 0x40
 8000ec0:	e014      	b.n	8000eec <HAL_I2C_IsDeviceReady+0xc8>
 8000ec2:	1c73      	adds	r3, r6, #1
 8000ec4:	d0de      	beq.n	8000e84 <HAL_I2C_IsDeviceReady+0x60>
 8000ec6:	f7ff fcbd 	bl	8000844 <HAL_GetTick>
 8000eca:	eba0 0008 	sub.w	r0, r0, r8
 8000ece:	42b0      	cmp	r0, r6
 8000ed0:	d801      	bhi.n	8000ed6 <HAL_I2C_IsDeviceReady+0xb2>
 8000ed2:	2e00      	cmp	r6, #0
 8000ed4:	d1d6      	bne.n	8000e84 <HAL_I2C_IsDeviceReady+0x60>
 8000ed6:	2320      	movs	r3, #32
 8000ed8:	f884 3041 	strb.w	r3, [r4, #65]	; 0x41
 8000edc:	6c63      	ldr	r3, [r4, #68]	; 0x44
 8000ede:	f043 0320 	orr.w	r3, r3, #32
 8000ee2:	6463      	str	r3, [r4, #68]	; 0x44
 8000ee4:	2300      	movs	r3, #0
 8000ee6:	f884 3040 	strb.w	r3, [r4, #64]	; 0x40
 8000eea:	2501      	movs	r5, #1
 8000eec:	4628      	mov	r0, r5
 8000eee:	b005      	add	sp, #20
 8000ef0:	e8bd 8ff0 	ldmia.w	sp!, {r4, r5, r6, r7, r8, r9, sl, fp, pc}
 8000ef4:	2200      	movs	r2, #0
 8000ef6:	2120      	movs	r1, #32
 8000ef8:	4620      	mov	r0, r4
 8000efa:	f7ff fe5b 	bl	8000bb4 <I2C_WaitOnFlagUntilTimeout>
 8000efe:	4602      	mov	r2, r0
 8000f00:	2800      	cmp	r0, #0
 8000f02:	d1f3      	bne.n	8000eec <HAL_I2C_IsDeviceReady+0xc8>
 8000f04:	6823      	ldr	r3, [r4, #0]
 8000f06:	2110      	movs	r1, #16
 8000f08:	f04f 0b20 	mov.w	fp, #32
 8000f0c:	61d9      	str	r1, [r3, #28]
 8000f0e:	f8c3 b01c 	str.w	fp, [r3, #28]
 8000f12:	9903      	ldr	r1, [sp, #12]
 8000f14:	4549      	cmp	r1, r9
 8000f16:	d10f      	bne.n	8000f38 <HAL_I2C_IsDeviceReady+0x114>
 8000f18:	6859      	ldr	r1, [r3, #4]
 8000f1a:	f441 4180 	orr.w	r1, r1, #16384	; 0x4000
 8000f1e:	6059      	str	r1, [r3, #4]
 8000f20:	4620      	mov	r0, r4
 8000f22:	f8cd 8000 	str.w	r8, [sp]
 8000f26:	4633      	mov	r3, r6
 8000f28:	4659      	mov	r1, fp
 8000f2a:	f7ff fe43 	bl	8000bb4 <I2C_WaitOnFlagUntilTimeout>
 8000f2e:	2800      	cmp	r0, #0
 8000f30:	d1dc      	bne.n	8000eec <HAL_I2C_IsDeviceReady+0xc8>
 8000f32:	6823      	ldr	r3, [r4, #0]
 8000f34:	f8c3 b01c 	str.w	fp, [r3, #28]
 8000f38:	9b03      	ldr	r3, [sp, #12]
 8000f3a:	3301      	adds	r3, #1
 8000f3c:	9303      	str	r3, [sp, #12]
 8000f3e:	9b03      	ldr	r3, [sp, #12]
 8000f40:	454b      	cmp	r3, r9
 8000f42:	d394      	bcc.n	8000e6e <HAL_I2C_IsDeviceReady+0x4a>
 8000f44:	2320      	movs	r3, #32
 8000f46:	f884 3041 	strb.w	r3, [r4, #65]	; 0x41
 8000f4a:	6c63      	ldr	r3, [r4, #68]	; 0x44
 8000f4c:	f043 0320 	orr.w	r3, r3, #32
 8000f50:	6463      	str	r3, [r4, #68]	; 0x44
 8000f52:	2300      	movs	r3, #0
 8000f54:	f884 3040 	strb.w	r3, [r4, #64]	; 0x40
 8000f58:	e7c8      	b.n	8000eec <HAL_I2C_IsDeviceReady+0xc8>
 8000f5a:	2502      	movs	r5, #2
 8000f5c:	e7c6      	b.n	8000eec <HAL_I2C_IsDeviceReady+0xc8>

08000f5e <HAL_I2CEx_ConfigAnalogFilter>:
 8000f5e:	b510      	push	{r4, lr}
 8000f60:	f890 3041 	ldrb.w	r3, [r0, #65]	; 0x41
 8000f64:	2b20      	cmp	r3, #32
 8000f66:	b2dc      	uxtb	r4, r3
 8000f68:	d11d      	bne.n	8000fa6 <HAL_I2CEx_ConfigAnalogFilter+0x48>
 8000f6a:	f890 3040 	ldrb.w	r3, [r0, #64]	; 0x40
 8000f6e:	2b01      	cmp	r3, #1
 8000f70:	d019      	beq.n	8000fa6 <HAL_I2CEx_ConfigAnalogFilter+0x48>
 8000f72:	2324      	movs	r3, #36	; 0x24
 8000f74:	f880 3041 	strb.w	r3, [r0, #65]	; 0x41
 8000f78:	6803      	ldr	r3, [r0, #0]
 8000f7a:	681a      	ldr	r2, [r3, #0]
 8000f7c:	f022 0201 	bic.w	r2, r2, #1
 8000f80:	601a      	str	r2, [r3, #0]
 8000f82:	681a      	ldr	r2, [r3, #0]
 8000f84:	f422 5280 	bic.w	r2, r2, #4096	; 0x1000
 8000f88:	601a      	str	r2, [r3, #0]
 8000f8a:	681a      	ldr	r2, [r3, #0]
 8000f8c:	4311      	orrs	r1, r2
 8000f8e:	6019      	str	r1, [r3, #0]
 8000f90:	681a      	ldr	r2, [r3, #0]
 8000f92:	f042 0201 	orr.w	r2, r2, #1
 8000f96:	601a      	str	r2, [r3, #0]
 8000f98:	2300      	movs	r3, #0
 8000f9a:	f880 4041 	strb.w	r4, [r0, #65]	; 0x41
 8000f9e:	f880 3040 	strb.w	r3, [r0, #64]	; 0x40
 8000fa2:	4618      	mov	r0, r3
 8000fa4:	bd10      	pop	{r4, pc}
 8000fa6:	2002      	movs	r0, #2
 8000fa8:	e7fc      	b.n	8000fa4 <HAL_I2CEx_ConfigAnalogFilter+0x46>

08000faa <HAL_I2CEx_ConfigDigitalFilter>:
 8000faa:	b510      	push	{r4, lr}
 8000fac:	f890 3041 	ldrb.w	r3, [r0, #65]	; 0x41
 8000fb0:	2b20      	cmp	r3, #32
 8000fb2:	b2dc      	uxtb	r4, r3
 8000fb4:	d11c      	bne.n	8000ff0 <HAL_I2CEx_ConfigDigitalFilter+0x46>
 8000fb6:	f890 3040 	ldrb.w	r3, [r0, #64]	; 0x40
 8000fba:	2b01      	cmp	r3, #1
 8000fbc:	d018      	beq.n	8000ff0 <HAL_I2CEx_ConfigDigitalFilter+0x46>
 8000fbe:	2324      	movs	r3, #36	; 0x24
 8000fc0:	f880 3041 	strb.w	r3, [r0, #65]	; 0x41
 8000fc4:	6803      	ldr	r3, [r0, #0]
 8000fc6:	681a      	ldr	r2, [r3, #0]
 8000fc8:	f022 0201 	bic.w	r2, r2, #1
 8000fcc:	601a      	str	r2, [r3, #0]
 8000fce:	681a      	ldr	r2, [r3, #0]
 8000fd0:	f422 6270 	bic.w	r2, r2, #3840	; 0xf00
 8000fd4:	ea42 2101 	orr.w	r1, r2, r1, lsl #8
 8000fd8:	6019      	str	r1, [r3, #0]
 8000fda:	681a      	ldr	r2, [r3, #0]
 8000fdc:	f042 0201 	orr.w	r2, r2, #1
 8000fe0:	601a      	str	r2, [r3, #0]
 8000fe2:	2300      	movs	r3, #0
 8000fe4:	f880 4041 	strb.w	r4, [r0, #65]	; 0x41
 8000fe8:	f880 3040 	strb.w	r3, [r0, #64]	; 0x40
 8000fec:	4618      	mov	r0, r3
 8000fee:	bd10      	pop	{r4, pc}
 8000ff0:	2002      	movs	r0, #2
 8000ff2:	e7fc      	b.n	8000fee <HAL_I2CEx_ConfigDigitalFilter+0x44>

08000ff4 <HAL_PWR_EnableBkUpAccess>:
 8000ff4:	4a02      	ldr	r2, [pc, #8]	; (8001000 <HAL_PWR_EnableBkUpAccess+0xc>)
 8000ff6:	6813      	ldr	r3, [r2, #0]
 8000ff8:	f443 7380 	orr.w	r3, r3, #256	; 0x100
 8000ffc:	6013      	str	r3, [r2, #0]
 8000ffe:	4770      	bx	lr
 8001000:	58000400 	.word	0x58000400

08001004 <HAL_PWREx_GetVoltageRange>:
 8001004:	4b02      	ldr	r3, [pc, #8]	; (8001010 <HAL_PWREx_GetVoltageRange+0xc>)
 8001006:	6818      	ldr	r0, [r3, #0]
 8001008:	f400 60c0 	and.w	r0, r0, #1536	; 0x600
 800100c:	4770      	bx	lr
 800100e:	bf00      	nop
 8001010:	58000400 	.word	0x58000400

08001014 <LL_RCC_HSE_IsReady>:
 8001014:	f04f 43b0 	mov.w	r3, #1476395008	; 0x58000000
 8001018:	6818      	ldr	r0, [r3, #0]
 800101a:	f3c0 4040 	ubfx	r0, r0, #17, #1
 800101e:	4770      	bx	lr

08001020 <LL_RCC_HSI_IsReady>:
 8001020:	f04f 43b0 	mov.w	r3, #1476395008	; 0x58000000
 8001024:	6818      	ldr	r0, [r3, #0]
 8001026:	f3c0 2080 	ubfx	r0, r0, #10, #1
 800102a:	4770      	bx	lr

0800102c <LL_RCC_MSI_IsReady>:
 800102c:	f04f 43b0 	mov.w	r3, #1476395008	; 0x58000000
 8001030:	6818      	ldr	r0, [r3, #0]
 8001032:	f3c0 0040 	ubfx	r0, r0, #1, #1
 8001036:	4770      	bx	lr

08001038 <LL_RCC_MSI_SetCalibTrimming>:
 8001038:	f04f 42b0 	mov.w	r2, #1476395008	; 0x58000000
 800103c:	6853      	ldr	r3, [r2, #4]
 800103e:	f423 437f 	bic.w	r3, r3, #65280	; 0xff00
 8001042:	ea43 2300 	orr.w	r3, r3, r0, lsl #8
 8001046:	6053      	str	r3, [r2, #4]
 8001048:	4770      	bx	lr

0800104a <LL_RCC_PLL_IsReady>:
 800104a:	f04f 43b0 	mov.w	r3, #1476395008	; 0x58000000
 800104e:	6818      	ldr	r0, [r3, #0]
 8001050:	f3c0 6040 	ubfx	r0, r0, #25, #1
 8001054:	4770      	bx	lr
	...

08001058 <RCC_SetFlashLatencyFromMSIRange>:
 8001058:	b57f      	push	{r0, r1, r2, r3, r4, r5, r6, lr}
 800105a:	f04f 43b0 	mov.w	r3, #1476395008	; 0x58000000
 800105e:	4a2c      	ldr	r2, [pc, #176]	; (8001110 <RCC_SetFlashLatencyFromMSIRange+0xb8>)
 8001060:	f8d3 3108 	ldr.w	r3, [r3, #264]	; 0x108
 8001064:	f3c0 1003 	ubfx	r0, r0, #4, #4
 8001068:	f003 030f 	and.w	r3, r3, #15
 800106c:	f852 4020 	ldr.w	r4, [r2, r0, lsl #2]
 8001070:	4a28      	ldr	r2, [pc, #160]	; (8001114 <RCC_SetFlashLatencyFromMSIRange+0xbc>)
 8001072:	f852 3023 	ldr.w	r3, [r2, r3, lsl #2]
 8001076:	fbb4 f4f3 	udiv	r4, r4, r3
 800107a:	f7ff ffc3 	bl	8001004 <HAL_PWREx_GetVoltageRange>
 800107e:	4b26      	ldr	r3, [pc, #152]	; (8001118 <RCC_SetFlashLatencyFromMSIRange+0xc0>)
 8001080:	4605      	mov	r5, r0
 8001082:	e893 0007 	ldmia.w	r3, {r0, r1, r2}
 8001086:	f5b5 7f00 	cmp.w	r5, #512	; 0x200
 800108a:	ab04      	add	r3, sp, #16
 800108c:	e903 0007 	stmdb	r3, {r0, r1, r2}
 8001090:	d010      	beq.n	80010b4 <RCC_SetFlashLatencyFromMSIRange+0x5c>
 8001092:	4b22      	ldr	r3, [pc, #136]	; (800111c <RCC_SetFlashLatencyFromMSIRange+0xc4>)
 8001094:	429c      	cmp	r4, r3
 8001096:	d318      	bcc.n	80010ca <RCC_SetFlashLatencyFromMSIRange+0x72>
 8001098:	f503 03b7 	add.w	r3, r3, #5996544	; 0x5b8000
 800109c:	f603 537f 	addw	r3, r3, #3455	; 0xd7f
 80010a0:	429c      	cmp	r4, r3
 80010a2:	d929      	bls.n	80010f8 <RCC_SetFlashLatencyFromMSIRange+0xa0>
 80010a4:	f503 1374 	add.w	r3, r3, #3997696	; 0x3d0000
 80010a8:	f503 6310 	add.w	r3, r3, #2304	; 0x900
 80010ac:	429c      	cmp	r4, r3
 80010ae:	d825      	bhi.n	80010fc <RCC_SetFlashLatencyFromMSIRange+0xa4>
 80010b0:	2302      	movs	r3, #2
 80010b2:	e00b      	b.n	80010cc <RCC_SetFlashLatencyFromMSIRange+0x74>
 80010b4:	4b1a      	ldr	r3, [pc, #104]	; (8001120 <RCC_SetFlashLatencyFromMSIRange+0xc8>)
 80010b6:	429c      	cmp	r4, r3
 80010b8:	d907      	bls.n	80010ca <RCC_SetFlashLatencyFromMSIRange+0x72>
 80010ba:	4b1a      	ldr	r3, [pc, #104]	; (8001124 <RCC_SetFlashLatencyFromMSIRange+0xcc>)
 80010bc:	429c      	cmp	r4, r3
 80010be:	d91b      	bls.n	80010f8 <RCC_SetFlashLatencyFromMSIRange+0xa0>
 80010c0:	f503 0337 	add.w	r3, r3, #11993088	; 0xb70000
 80010c4:	f503 53d8 	add.w	r3, r3, #6912	; 0x1b00
 80010c8:	e7f0      	b.n	80010ac <RCC_SetFlashLatencyFromMSIRange+0x54>
 80010ca:	2300      	movs	r3, #0
 80010cc:	aa04      	add	r2, sp, #16
 80010ce:	eb02 0383 	add.w	r3, r2, r3, lsl #2
 80010d2:	f853 4c0c 	ldr.w	r4, [r3, #-12]
 80010d6:	4d14      	ldr	r5, [pc, #80]	; (8001128 <RCC_SetFlashLatencyFromMSIRange+0xd0>)
 80010d8:	682b      	ldr	r3, [r5, #0]
 80010da:	f023 0307 	bic.w	r3, r3, #7
 80010de:	4323      	orrs	r3, r4
 80010e0:	602b      	str	r3, [r5, #0]
 80010e2:	f7ff fbaf 	bl	8000844 <HAL_GetTick>
 80010e6:	4606      	mov	r6, r0
 80010e8:	682b      	ldr	r3, [r5, #0]
 80010ea:	f003 0307 	and.w	r3, r3, #7
 80010ee:	429c      	cmp	r4, r3
 80010f0:	d106      	bne.n	8001100 <RCC_SetFlashLatencyFromMSIRange+0xa8>
 80010f2:	2000      	movs	r0, #0
 80010f4:	b004      	add	sp, #16
 80010f6:	bd70      	pop	{r4, r5, r6, pc}
 80010f8:	2301      	movs	r3, #1
 80010fa:	e7e7      	b.n	80010cc <RCC_SetFlashLatencyFromMSIRange+0x74>
 80010fc:	2400      	movs	r4, #0
 80010fe:	e7ea      	b.n	80010d6 <RCC_SetFlashLatencyFromMSIRange+0x7e>
 8001100:	f7ff fba0 	bl	8000844 <HAL_GetTick>
 8001104:	1b80      	subs	r0, r0, r6
 8001106:	2802      	cmp	r0, #2
 8001108:	d9ee      	bls.n	80010e8 <RCC_SetFlashLatencyFromMSIRange+0x90>
 800110a:	2003      	movs	r0, #3
 800110c:	e7f2      	b.n	80010f4 <RCC_SetFlashLatencyFromMSIRange+0x9c>
 800110e:	bf00      	nop
 8001110:	0800293c 	.word	0x0800293c
 8001114:	080028fc 	.word	0x080028fc
 8001118:	08001b88 	.word	0x08001b88
 800111c:	006acfc0 	.word	0x006acfc0
 8001120:	0121eabf 	.word	0x0121eabf
 8001124:	0234933f 	.word	0x0234933f
 8001128:	58004000 	.word	0x58004000

0800112c <HAL_RCC_GetSysClockFreq>:
 800112c:	f04f 43b0 	mov.w	r3, #1476395008	; 0x58000000
 8001130:	b510      	push	{r4, lr}
 8001132:	689a      	ldr	r2, [r3, #8]
 8001134:	68d9      	ldr	r1, [r3, #12]
 8001136:	f012 020c 	ands.w	r2, r2, #12
 800113a:	d005      	beq.n	8001148 <HAL_RCC_GetSysClockFreq+0x1c>
 800113c:	2a0c      	cmp	r2, #12
 800113e:	d14a      	bne.n	80011d6 <HAL_RCC_GetSysClockFreq+0xaa>
 8001140:	f001 0303 	and.w	r3, r1, #3
 8001144:	2b01      	cmp	r3, #1
 8001146:	d150      	bne.n	80011ea <HAL_RCC_GetSysClockFreq+0xbe>
 8001148:	f04f 41b0 	mov.w	r1, #1476395008	; 0x58000000
 800114c:	482b      	ldr	r0, [pc, #172]	; (80011fc <HAL_RCC_GetSysClockFreq+0xd0>)
 800114e:	680b      	ldr	r3, [r1, #0]
 8001150:	f013 0308 	ands.w	r3, r3, #8
 8001154:	d006      	beq.n	8001164 <HAL_RCC_GetSysClockFreq+0x38>
 8001156:	680b      	ldr	r3, [r1, #0]
 8001158:	f013 0308 	ands.w	r3, r3, #8
 800115c:	d137      	bne.n	80011ce <HAL_RCC_GetSysClockFreq+0xa2>
 800115e:	f8d1 1094 	ldr.w	r1, [r1, #148]	; 0x94
 8001162:	e007      	b.n	8001174 <HAL_RCC_GetSysClockFreq+0x48>
 8001164:	680c      	ldr	r4, [r1, #0]
 8001166:	0724      	lsls	r4, r4, #28
 8001168:	bf56      	itet	pl
 800116a:	f8d1 3094 	ldrpl.w	r3, [r1, #148]	; 0x94
 800116e:	6809      	ldrmi	r1, [r1, #0]
 8001170:	f3c3 2303 	ubfxpl	r3, r3, #8, #4
 8001174:	f850 3023 	ldr.w	r3, [r0, r3, lsl #2]
 8001178:	2a00      	cmp	r2, #0
 800117a:	bf0c      	ite	eq
 800117c:	4618      	moveq	r0, r3
 800117e:	2000      	movne	r0, #0
 8001180:	f04f 41b0 	mov.w	r1, #1476395008	; 0x58000000
 8001184:	688a      	ldr	r2, [r1, #8]
 8001186:	f002 020c 	and.w	r2, r2, #12
 800118a:	2a0c      	cmp	r2, #12
 800118c:	d11e      	bne.n	80011cc <HAL_RCC_GetSysClockFreq+0xa0>
 800118e:	68ca      	ldr	r2, [r1, #12]
 8001190:	f002 0203 	and.w	r2, r2, #3
 8001194:	2a02      	cmp	r2, #2
 8001196:	d02e      	beq.n	80011f6 <HAL_RCC_GetSysClockFreq+0xca>
 8001198:	2a03      	cmp	r2, #3
 800119a:	d106      	bne.n	80011aa <HAL_RCC_GetSysClockFreq+0x7e>
 800119c:	680b      	ldr	r3, [r1, #0]
 800119e:	4818      	ldr	r0, [pc, #96]	; (8001200 <HAL_RCC_GetSysClockFreq+0xd4>)
 80011a0:	f413 1f80 	tst.w	r3, #1048576	; 0x100000
 80011a4:	4b17      	ldr	r3, [pc, #92]	; (8001204 <HAL_RCC_GetSysClockFreq+0xd8>)
 80011a6:	bf18      	it	ne
 80011a8:	4603      	movne	r3, r0
 80011aa:	f04f 40b0 	mov.w	r0, #1476395008	; 0x58000000
 80011ae:	68c1      	ldr	r1, [r0, #12]
 80011b0:	68c2      	ldr	r2, [r0, #12]
 80011b2:	68c0      	ldr	r0, [r0, #12]
 80011b4:	f3c1 2106 	ubfx	r1, r1, #8, #7
 80011b8:	f3c2 1202 	ubfx	r2, r2, #4, #3
 80011bc:	0f40      	lsrs	r0, r0, #29
 80011be:	434b      	muls	r3, r1
 80011c0:	3201      	adds	r2, #1
 80011c2:	3001      	adds	r0, #1
 80011c4:	fbb3 f3f2 	udiv	r3, r3, r2
 80011c8:	fbb3 f0f0 	udiv	r0, r3, r0
 80011cc:	bd10      	pop	{r4, pc}
 80011ce:	680b      	ldr	r3, [r1, #0]
 80011d0:	f3c3 1303 	ubfx	r3, r3, #4, #4
 80011d4:	e7ce      	b.n	8001174 <HAL_RCC_GetSysClockFreq+0x48>
 80011d6:	2a04      	cmp	r2, #4
 80011d8:	d00a      	beq.n	80011f0 <HAL_RCC_GetSysClockFreq+0xc4>
 80011da:	2a08      	cmp	r2, #8
 80011dc:	d105      	bne.n	80011ea <HAL_RCC_GetSysClockFreq+0xbe>
 80011de:	681b      	ldr	r3, [r3, #0]
 80011e0:	f413 1380 	ands.w	r3, r3, #1048576	; 0x100000
 80011e4:	d104      	bne.n	80011f0 <HAL_RCC_GetSysClockFreq+0xc4>
 80011e6:	4807      	ldr	r0, [pc, #28]	; (8001204 <HAL_RCC_GetSysClockFreq+0xd8>)
 80011e8:	e7ca      	b.n	8001180 <HAL_RCC_GetSysClockFreq+0x54>
 80011ea:	2300      	movs	r3, #0
 80011ec:	4618      	mov	r0, r3
 80011ee:	e7c7      	b.n	8001180 <HAL_RCC_GetSysClockFreq+0x54>
 80011f0:	4803      	ldr	r0, [pc, #12]	; (8001200 <HAL_RCC_GetSysClockFreq+0xd4>)
 80011f2:	2300      	movs	r3, #0
 80011f4:	e7c4      	b.n	8001180 <HAL_RCC_GetSysClockFreq+0x54>
 80011f6:	4b02      	ldr	r3, [pc, #8]	; (8001200 <HAL_RCC_GetSysClockFreq+0xd4>)
 80011f8:	e7d7      	b.n	80011aa <HAL_RCC_GetSysClockFreq+0x7e>
 80011fa:	bf00      	nop
 80011fc:	0800293c 	.word	0x0800293c
 8001200:	00f42400 	.word	0x00f42400
 8001204:	01e84800 	.word	0x01e84800

08001208 <HAL_RCC_GetHCLKFreq>:
 8001208:	b508      	push	{r3, lr}
 800120a:	f7ff ff8f 	bl	800112c <HAL_RCC_GetSysClockFreq>
 800120e:	f04f 43b0 	mov.w	r3, #1476395008	; 0x58000000
 8001212:	4a04      	ldr	r2, [pc, #16]	; (8001224 <HAL_RCC_GetHCLKFreq+0x1c>)
 8001214:	689b      	ldr	r3, [r3, #8]
 8001216:	f3c3 1303 	ubfx	r3, r3, #4, #4
 800121a:	f852 3023 	ldr.w	r3, [r2, r3, lsl #2]
 800121e:	fbb0 f0f3 	udiv	r0, r0, r3
 8001222:	bd08      	pop	{r3, pc}
 8001224:	080028fc 	.word	0x080028fc

08001228 <HAL_RCC_OscConfig>:
 8001228:	e92d 41f0 	stmdb	sp!, {r4, r5, r6, r7, r8, lr}
 800122c:	4604      	mov	r4, r0
 800122e:	2800      	cmp	r0, #0
 8001230:	d055      	beq.n	80012de <HAL_RCC_OscConfig+0xb6>
 8001232:	f04f 43b0 	mov.w	r3, #1476395008	; 0x58000000
 8001236:	689e      	ldr	r6, [r3, #8]
 8001238:	68dd      	ldr	r5, [r3, #12]
 800123a:	6803      	ldr	r3, [r0, #0]
 800123c:	0699      	lsls	r1, r3, #26
 800123e:	f006 060c 	and.w	r6, r6, #12
 8001242:	f005 0503 	and.w	r5, r5, #3
 8001246:	d56b      	bpl.n	8001320 <HAL_RCC_OscConfig+0xf8>
 8001248:	b11e      	cbz	r6, 8001252 <HAL_RCC_OscConfig+0x2a>
 800124a:	2e0c      	cmp	r6, #12
 800124c:	d149      	bne.n	80012e2 <HAL_RCC_OscConfig+0xba>
 800124e:	2d01      	cmp	r5, #1
 8001250:	d147      	bne.n	80012e2 <HAL_RCC_OscConfig+0xba>
 8001252:	f7ff feeb 	bl	800102c <LL_RCC_MSI_IsReady>
 8001256:	b110      	cbz	r0, 800125e <HAL_RCC_OscConfig+0x36>
 8001258:	6a23      	ldr	r3, [r4, #32]
 800125a:	2b00      	cmp	r3, #0
 800125c:	d03f      	beq.n	80012de <HAL_RCC_OscConfig+0xb6>
 800125e:	f04f 43b0 	mov.w	r3, #1476395008	; 0x58000000
 8001262:	6aa0      	ldr	r0, [r4, #40]	; 0x28
 8001264:	681a      	ldr	r2, [r3, #0]
 8001266:	0712      	lsls	r2, r2, #28
 8001268:	bf56      	itet	pl
 800126a:	f8d3 3094 	ldrpl.w	r3, [r3, #148]	; 0x94
 800126e:	681b      	ldrmi	r3, [r3, #0]
 8001270:	091b      	lsrpl	r3, r3, #4
 8001272:	f003 03f0 	and.w	r3, r3, #240	; 0xf0
 8001276:	4298      	cmp	r0, r3
 8001278:	d91e      	bls.n	80012b8 <HAL_RCC_OscConfig+0x90>
 800127a:	f7ff feed 	bl	8001058 <RCC_SetFlashLatencyFromMSIRange>
 800127e:	2800      	cmp	r0, #0
 8001280:	d12d      	bne.n	80012de <HAL_RCC_OscConfig+0xb6>
 8001282:	f04f 42b0 	mov.w	r2, #1476395008	; 0x58000000
 8001286:	6813      	ldr	r3, [r2, #0]
 8001288:	f043 0308 	orr.w	r3, r3, #8
 800128c:	6013      	str	r3, [r2, #0]
 800128e:	6813      	ldr	r3, [r2, #0]
 8001290:	6aa1      	ldr	r1, [r4, #40]	; 0x28
 8001292:	f023 03f0 	bic.w	r3, r3, #240	; 0xf0
 8001296:	430b      	orrs	r3, r1
 8001298:	6013      	str	r3, [r2, #0]
 800129a:	6a60      	ldr	r0, [r4, #36]	; 0x24
 800129c:	f7ff fecc 	bl	8001038 <LL_RCC_MSI_SetCalibTrimming>
 80012a0:	f7ff ffb2 	bl	8001208 <HAL_RCC_GetHCLKFreq>
 80012a4:	4bac      	ldr	r3, [pc, #688]	; (8001558 <HAL_RCC_OscConfig+0x330>)
 80012a6:	6018      	str	r0, [r3, #0]
 80012a8:	4bac      	ldr	r3, [pc, #688]	; (800155c <HAL_RCC_OscConfig+0x334>)
 80012aa:	6818      	ldr	r0, [r3, #0]
 80012ac:	f7ff fa82 	bl	80007b4 <HAL_InitTick>
 80012b0:	2800      	cmp	r0, #0
 80012b2:	d035      	beq.n	8001320 <HAL_RCC_OscConfig+0xf8>
 80012b4:	e8bd 81f0 	ldmia.w	sp!, {r4, r5, r6, r7, r8, pc}
 80012b8:	f04f 42b0 	mov.w	r2, #1476395008	; 0x58000000
 80012bc:	6813      	ldr	r3, [r2, #0]
 80012be:	f043 0308 	orr.w	r3, r3, #8
 80012c2:	6013      	str	r3, [r2, #0]
 80012c4:	6813      	ldr	r3, [r2, #0]
 80012c6:	f023 03f0 	bic.w	r3, r3, #240	; 0xf0
 80012ca:	4303      	orrs	r3, r0
 80012cc:	6013      	str	r3, [r2, #0]
 80012ce:	6a60      	ldr	r0, [r4, #36]	; 0x24
 80012d0:	f7ff feb2 	bl	8001038 <LL_RCC_MSI_SetCalibTrimming>
 80012d4:	6aa0      	ldr	r0, [r4, #40]	; 0x28
 80012d6:	f7ff febf 	bl	8001058 <RCC_SetFlashLatencyFromMSIRange>
 80012da:	2800      	cmp	r0, #0
 80012dc:	d0e0      	beq.n	80012a0 <HAL_RCC_OscConfig+0x78>
 80012de:	2001      	movs	r0, #1
 80012e0:	e7e8      	b.n	80012b4 <HAL_RCC_OscConfig+0x8c>
 80012e2:	6a22      	ldr	r2, [r4, #32]
 80012e4:	f04f 43b0 	mov.w	r3, #1476395008	; 0x58000000
 80012e8:	2a00      	cmp	r2, #0
 80012ea:	d054      	beq.n	8001396 <HAL_RCC_OscConfig+0x16e>
 80012ec:	681a      	ldr	r2, [r3, #0]
 80012ee:	f042 0201 	orr.w	r2, r2, #1
 80012f2:	601a      	str	r2, [r3, #0]
 80012f4:	f7ff faa6 	bl	8000844 <HAL_GetTick>
 80012f8:	4607      	mov	r7, r0
 80012fa:	f7ff fe97 	bl	800102c <LL_RCC_MSI_IsReady>
 80012fe:	2800      	cmp	r0, #0
 8001300:	d042      	beq.n	8001388 <HAL_RCC_OscConfig+0x160>
 8001302:	f04f 42b0 	mov.w	r2, #1476395008	; 0x58000000
 8001306:	6813      	ldr	r3, [r2, #0]
 8001308:	f043 0308 	orr.w	r3, r3, #8
 800130c:	6013      	str	r3, [r2, #0]
 800130e:	6813      	ldr	r3, [r2, #0]
 8001310:	6aa1      	ldr	r1, [r4, #40]	; 0x28
 8001312:	f023 03f0 	bic.w	r3, r3, #240	; 0xf0
 8001316:	430b      	orrs	r3, r1
 8001318:	6013      	str	r3, [r2, #0]
 800131a:	6a60      	ldr	r0, [r4, #36]	; 0x24
 800131c:	f7ff fe8c 	bl	8001038 <LL_RCC_MSI_SetCalibTrimming>
 8001320:	6823      	ldr	r3, [r4, #0]
 8001322:	07db      	lsls	r3, r3, #31
 8001324:	d448      	bmi.n	80013b8 <HAL_RCC_OscConfig+0x190>
 8001326:	6823      	ldr	r3, [r4, #0]
 8001328:	079f      	lsls	r7, r3, #30
 800132a:	f100 8090 	bmi.w	800144e <HAL_RCC_OscConfig+0x226>
 800132e:	6823      	ldr	r3, [r4, #0]
 8001330:	071d      	lsls	r5, r3, #28
 8001332:	f140 80fc 	bpl.w	800152e <HAL_RCC_OscConfig+0x306>
 8001336:	69a3      	ldr	r3, [r4, #24]
 8001338:	f04f 45b0 	mov.w	r5, #1476395008	; 0x58000000
 800133c:	2b00      	cmp	r3, #0
 800133e:	f000 80e3 	beq.w	8001508 <HAL_RCC_OscConfig+0x2e0>
 8001342:	f8d5 3094 	ldr.w	r3, [r5, #148]	; 0x94
 8001346:	69e1      	ldr	r1, [r4, #28]
 8001348:	f003 0210 	and.w	r2, r3, #16
 800134c:	4291      	cmp	r1, r2
 800134e:	f000 80c6 	beq.w	80014de <HAL_RCC_OscConfig+0x2b6>
 8001352:	f003 0203 	and.w	r2, r3, #3
 8001356:	2a02      	cmp	r2, #2
 8001358:	d0c1      	beq.n	80012de <HAL_RCC_OscConfig+0xb6>
 800135a:	07d8      	lsls	r0, r3, #31
 800135c:	f140 80b5 	bpl.w	80014ca <HAL_RCC_OscConfig+0x2a2>
 8001360:	f8d5 3094 	ldr.w	r3, [r5, #148]	; 0x94
 8001364:	f023 0301 	bic.w	r3, r3, #1
 8001368:	f8c5 3094 	str.w	r3, [r5, #148]	; 0x94
 800136c:	f7ff fa6a 	bl	8000844 <HAL_GetTick>
 8001370:	4607      	mov	r7, r0
 8001372:	f8d5 3094 	ldr.w	r3, [r5, #148]	; 0x94
 8001376:	0799      	lsls	r1, r3, #30
 8001378:	f140 80a7 	bpl.w	80014ca <HAL_RCC_OscConfig+0x2a2>
 800137c:	f7ff fa62 	bl	8000844 <HAL_GetTick>
 8001380:	1bc3      	subs	r3, r0, r7
 8001382:	2b11      	cmp	r3, #17
 8001384:	d9f5      	bls.n	8001372 <HAL_RCC_OscConfig+0x14a>
 8001386:	e004      	b.n	8001392 <HAL_RCC_OscConfig+0x16a>
 8001388:	f7ff fa5c 	bl	8000844 <HAL_GetTick>
 800138c:	1bc0      	subs	r0, r0, r7
 800138e:	2802      	cmp	r0, #2
 8001390:	d9b3      	bls.n	80012fa <HAL_RCC_OscConfig+0xd2>
 8001392:	2003      	movs	r0, #3
 8001394:	e78e      	b.n	80012b4 <HAL_RCC_OscConfig+0x8c>
 8001396:	681a      	ldr	r2, [r3, #0]
 8001398:	f022 0201 	bic.w	r2, r2, #1
 800139c:	601a      	str	r2, [r3, #0]
 800139e:	f7ff fa51 	bl	8000844 <HAL_GetTick>
 80013a2:	4607      	mov	r7, r0
 80013a4:	f7ff fe42 	bl	800102c <LL_RCC_MSI_IsReady>
 80013a8:	2800      	cmp	r0, #0
 80013aa:	d0b9      	beq.n	8001320 <HAL_RCC_OscConfig+0xf8>
 80013ac:	f7ff fa4a 	bl	8000844 <HAL_GetTick>
 80013b0:	1bc0      	subs	r0, r0, r7
 80013b2:	2802      	cmp	r0, #2
 80013b4:	d9f6      	bls.n	80013a4 <HAL_RCC_OscConfig+0x17c>
 80013b6:	e7ec      	b.n	8001392 <HAL_RCC_OscConfig+0x16a>
 80013b8:	2e08      	cmp	r6, #8
 80013ba:	d003      	beq.n	80013c4 <HAL_RCC_OscConfig+0x19c>
 80013bc:	2e0c      	cmp	r6, #12
 80013be:	d109      	bne.n	80013d4 <HAL_RCC_OscConfig+0x1ac>
 80013c0:	2d03      	cmp	r5, #3
 80013c2:	d107      	bne.n	80013d4 <HAL_RCC_OscConfig+0x1ac>
 80013c4:	f7ff fe26 	bl	8001014 <LL_RCC_HSE_IsReady>
 80013c8:	2800      	cmp	r0, #0
 80013ca:	d0ac      	beq.n	8001326 <HAL_RCC_OscConfig+0xfe>
 80013cc:	6863      	ldr	r3, [r4, #4]
 80013ce:	2b00      	cmp	r3, #0
 80013d0:	d1a9      	bne.n	8001326 <HAL_RCC_OscConfig+0xfe>
 80013d2:	e784      	b.n	80012de <HAL_RCC_OscConfig+0xb6>
 80013d4:	f04f 43b0 	mov.w	r3, #1476395008	; 0x58000000
 80013d8:	68a1      	ldr	r1, [r4, #8]
 80013da:	681a      	ldr	r2, [r3, #0]
 80013dc:	f422 1280 	bic.w	r2, r2, #1048576	; 0x100000
 80013e0:	430a      	orrs	r2, r1
 80013e2:	601a      	str	r2, [r3, #0]
 80013e4:	6862      	ldr	r2, [r4, #4]
 80013e6:	f5b2 3f80 	cmp.w	r2, #65536	; 0x10000
 80013ea:	d110      	bne.n	800140e <HAL_RCC_OscConfig+0x1e6>
 80013ec:	681a      	ldr	r2, [r3, #0]
 80013ee:	f442 3280 	orr.w	r2, r2, #65536	; 0x10000
 80013f2:	601a      	str	r2, [r3, #0]
 80013f4:	f7ff fa26 	bl	8000844 <HAL_GetTick>
 80013f8:	4607      	mov	r7, r0
 80013fa:	f7ff fe0b 	bl	8001014 <LL_RCC_HSE_IsReady>
 80013fe:	2800      	cmp	r0, #0
 8001400:	d191      	bne.n	8001326 <HAL_RCC_OscConfig+0xfe>
 8001402:	f7ff fa1f 	bl	8000844 <HAL_GetTick>
 8001406:	1bc0      	subs	r0, r0, r7
 8001408:	2864      	cmp	r0, #100	; 0x64
 800140a:	d9f6      	bls.n	80013fa <HAL_RCC_OscConfig+0x1d2>
 800140c:	e7c1      	b.n	8001392 <HAL_RCC_OscConfig+0x16a>
 800140e:	f5b2 1f04 	cmp.w	r2, #2162688	; 0x210000
 8001412:	d104      	bne.n	800141e <HAL_RCC_OscConfig+0x1f6>
 8001414:	681a      	ldr	r2, [r3, #0]
 8001416:	f442 1200 	orr.w	r2, r2, #2097152	; 0x200000
 800141a:	601a      	str	r2, [r3, #0]
 800141c:	e7e6      	b.n	80013ec <HAL_RCC_OscConfig+0x1c4>
 800141e:	6819      	ldr	r1, [r3, #0]
 8001420:	f421 3180 	bic.w	r1, r1, #65536	; 0x10000
 8001424:	6019      	str	r1, [r3, #0]
 8001426:	6819      	ldr	r1, [r3, #0]
 8001428:	f421 1100 	bic.w	r1, r1, #2097152	; 0x200000
 800142c:	6019      	str	r1, [r3, #0]
 800142e:	2a00      	cmp	r2, #0
 8001430:	d1e0      	bne.n	80013f4 <HAL_RCC_OscConfig+0x1cc>
 8001432:	f7ff fa07 	bl	8000844 <HAL_GetTick>
 8001436:	4607      	mov	r7, r0
 8001438:	f7ff fdec 	bl	8001014 <LL_RCC_HSE_IsReady>
 800143c:	2800      	cmp	r0, #0
 800143e:	f43f af72 	beq.w	8001326 <HAL_RCC_OscConfig+0xfe>
 8001442:	f7ff f9ff 	bl	8000844 <HAL_GetTick>
 8001446:	1bc0      	subs	r0, r0, r7
 8001448:	2864      	cmp	r0, #100	; 0x64
 800144a:	d9f5      	bls.n	8001438 <HAL_RCC_OscConfig+0x210>
 800144c:	e7a1      	b.n	8001392 <HAL_RCC_OscConfig+0x16a>
 800144e:	2e04      	cmp	r6, #4
 8001450:	d003      	beq.n	800145a <HAL_RCC_OscConfig+0x232>
 8001452:	2e0c      	cmp	r6, #12
 8001454:	d112      	bne.n	800147c <HAL_RCC_OscConfig+0x254>
 8001456:	2d02      	cmp	r5, #2
 8001458:	d110      	bne.n	800147c <HAL_RCC_OscConfig+0x254>
 800145a:	f7ff fde1 	bl	8001020 <LL_RCC_HSI_IsReady>
 800145e:	b118      	cbz	r0, 8001468 <HAL_RCC_OscConfig+0x240>
 8001460:	6923      	ldr	r3, [r4, #16]
 8001462:	2b00      	cmp	r3, #0
 8001464:	f43f af3b 	beq.w	80012de <HAL_RCC_OscConfig+0xb6>
 8001468:	f04f 42b0 	mov.w	r2, #1476395008	; 0x58000000
 800146c:	6961      	ldr	r1, [r4, #20]
 800146e:	6853      	ldr	r3, [r2, #4]
 8001470:	f023 43fe 	bic.w	r3, r3, #2130706432	; 0x7f000000
 8001474:	ea43 6301 	orr.w	r3, r3, r1, lsl #24
 8001478:	6053      	str	r3, [r2, #4]
 800147a:	e758      	b.n	800132e <HAL_RCC_OscConfig+0x106>
 800147c:	6922      	ldr	r2, [r4, #16]
 800147e:	f04f 43b0 	mov.w	r3, #1476395008	; 0x58000000
 8001482:	b182      	cbz	r2, 80014a6 <HAL_RCC_OscConfig+0x27e>
 8001484:	681a      	ldr	r2, [r3, #0]
 8001486:	f442 7280 	orr.w	r2, r2, #256	; 0x100
 800148a:	601a      	str	r2, [r3, #0]
 800148c:	f7ff f9da 	bl	8000844 <HAL_GetTick>
 8001490:	4605      	mov	r5, r0
 8001492:	f7ff fdc5 	bl	8001020 <LL_RCC_HSI_IsReady>
 8001496:	2800      	cmp	r0, #0
 8001498:	d1e6      	bne.n	8001468 <HAL_RCC_OscConfig+0x240>
 800149a:	f7ff f9d3 	bl	8000844 <HAL_GetTick>
 800149e:	1b40      	subs	r0, r0, r5
 80014a0:	2802      	cmp	r0, #2
 80014a2:	d9f6      	bls.n	8001492 <HAL_RCC_OscConfig+0x26a>
 80014a4:	e775      	b.n	8001392 <HAL_RCC_OscConfig+0x16a>
 80014a6:	681a      	ldr	r2, [r3, #0]
 80014a8:	f422 7280 	bic.w	r2, r2, #256	; 0x100
 80014ac:	601a      	str	r2, [r3, #0]
 80014ae:	f7ff f9c9 	bl	8000844 <HAL_GetTick>
 80014b2:	4605      	mov	r5, r0
 80014b4:	f7ff fdb4 	bl	8001020 <LL_RCC_HSI_IsReady>
 80014b8:	2800      	cmp	r0, #0
 80014ba:	f43f af38 	beq.w	800132e <HAL_RCC_OscConfig+0x106>
 80014be:	f7ff f9c1 	bl	8000844 <HAL_GetTick>
 80014c2:	1b40      	subs	r0, r0, r5
 80014c4:	2802      	cmp	r0, #2
 80014c6:	d9f5      	bls.n	80014b4 <HAL_RCC_OscConfig+0x28c>
 80014c8:	e763      	b.n	8001392 <HAL_RCC_OscConfig+0x16a>
 80014ca:	f04f 42b0 	mov.w	r2, #1476395008	; 0x58000000
 80014ce:	69e1      	ldr	r1, [r4, #28]
 80014d0:	f8d2 3094 	ldr.w	r3, [r2, #148]	; 0x94
 80014d4:	f023 0310 	bic.w	r3, r3, #16
 80014d8:	430b      	orrs	r3, r1
 80014da:	f8c2 3094 	str.w	r3, [r2, #148]	; 0x94
 80014de:	f04f 45b0 	mov.w	r5, #1476395008	; 0x58000000
 80014e2:	f8d5 3094 	ldr.w	r3, [r5, #148]	; 0x94
 80014e6:	f043 0301 	orr.w	r3, r3, #1
 80014ea:	f8c5 3094 	str.w	r3, [r5, #148]	; 0x94
 80014ee:	f7ff f9a9 	bl	8000844 <HAL_GetTick>
 80014f2:	4607      	mov	r7, r0
 80014f4:	f8d5 3094 	ldr.w	r3, [r5, #148]	; 0x94
 80014f8:	079a      	lsls	r2, r3, #30
 80014fa:	d418      	bmi.n	800152e <HAL_RCC_OscConfig+0x306>
 80014fc:	f7ff f9a2 	bl	8000844 <HAL_GetTick>
 8001500:	1bc3      	subs	r3, r0, r7
 8001502:	2b11      	cmp	r3, #17
 8001504:	d9f6      	bls.n	80014f4 <HAL_RCC_OscConfig+0x2cc>
 8001506:	e744      	b.n	8001392 <HAL_RCC_OscConfig+0x16a>
 8001508:	f8d5 3094 	ldr.w	r3, [r5, #148]	; 0x94
 800150c:	f023 0301 	bic.w	r3, r3, #1
 8001510:	f8c5 3094 	str.w	r3, [r5, #148]	; 0x94
 8001514:	f7ff f996 	bl	8000844 <HAL_GetTick>
 8001518:	4607      	mov	r7, r0
 800151a:	f8d5 3094 	ldr.w	r3, [r5, #148]	; 0x94
 800151e:	079b      	lsls	r3, r3, #30
 8001520:	d505      	bpl.n	800152e <HAL_RCC_OscConfig+0x306>
 8001522:	f7ff f98f 	bl	8000844 <HAL_GetTick>
 8001526:	1bc3      	subs	r3, r0, r7
 8001528:	2b11      	cmp	r3, #17
 800152a:	d9f6      	bls.n	800151a <HAL_RCC_OscConfig+0x2f2>
 800152c:	e731      	b.n	8001392 <HAL_RCC_OscConfig+0x16a>
 800152e:	6823      	ldr	r3, [r4, #0]
 8001530:	0758      	lsls	r0, r3, #29
 8001532:	d553      	bpl.n	80015dc <HAL_RCC_OscConfig+0x3b4>
 8001534:	4d0a      	ldr	r5, [pc, #40]	; (8001560 <HAL_RCC_OscConfig+0x338>)
 8001536:	682b      	ldr	r3, [r5, #0]
 8001538:	05d9      	lsls	r1, r3, #23
 800153a:	d413      	bmi.n	8001564 <HAL_RCC_OscConfig+0x33c>
 800153c:	f7ff fd5a 	bl	8000ff4 <HAL_PWR_EnableBkUpAccess>
 8001540:	f7ff f980 	bl	8000844 <HAL_GetTick>
 8001544:	4607      	mov	r7, r0
 8001546:	682b      	ldr	r3, [r5, #0]
 8001548:	05da      	lsls	r2, r3, #23
 800154a:	d40b      	bmi.n	8001564 <HAL_RCC_OscConfig+0x33c>
 800154c:	f7ff f97a 	bl	8000844 <HAL_GetTick>
 8001550:	1bc3      	subs	r3, r0, r7
 8001552:	2b02      	cmp	r3, #2
 8001554:	d9f7      	bls.n	8001546 <HAL_RCC_OscConfig+0x31e>
 8001556:	e71c      	b.n	8001392 <HAL_RCC_OscConfig+0x16a>
 8001558:	20000008 	.word	0x20000008
 800155c:	20000010 	.word	0x20000010
 8001560:	58000400 	.word	0x58000400
 8001564:	68e3      	ldr	r3, [r4, #12]
 8001566:	f04f 45b0 	mov.w	r5, #1476395008	; 0x58000000
 800156a:	2b00      	cmp	r3, #0
 800156c:	d058      	beq.n	8001620 <HAL_RCC_OscConfig+0x3f8>
 800156e:	f023 0380 	bic.w	r3, r3, #128	; 0x80
 8001572:	2b05      	cmp	r3, #5
 8001574:	bf02      	ittt	eq
 8001576:	f8d5 3090 	ldreq.w	r3, [r5, #144]	; 0x90
 800157a:	f043 0304 	orreq.w	r3, r3, #4
 800157e:	f8c5 3090 	streq.w	r3, [r5, #144]	; 0x90
 8001582:	f04f 45b0 	mov.w	r5, #1476395008	; 0x58000000
 8001586:	f7ff f95d 	bl	8000844 <HAL_GetTick>
 800158a:	f8d5 3090 	ldr.w	r3, [r5, #144]	; 0x90
 800158e:	f043 0301 	orr.w	r3, r3, #1
 8001592:	4607      	mov	r7, r0
 8001594:	f8c5 3090 	str.w	r3, [r5, #144]	; 0x90
 8001598:	f241 3888 	movw	r8, #5000	; 0x1388
 800159c:	f8d5 3090 	ldr.w	r3, [r5, #144]	; 0x90
 80015a0:	079b      	lsls	r3, r3, #30
 80015a2:	d405      	bmi.n	80015b0 <HAL_RCC_OscConfig+0x388>
 80015a4:	f7ff f94e 	bl	8000844 <HAL_GetTick>
 80015a8:	1bc3      	subs	r3, r0, r7
 80015aa:	4543      	cmp	r3, r8
 80015ac:	d9f6      	bls.n	800159c <HAL_RCC_OscConfig+0x374>
 80015ae:	e6f0      	b.n	8001392 <HAL_RCC_OscConfig+0x16a>
 80015b0:	68e3      	ldr	r3, [r4, #12]
 80015b2:	f023 0304 	bic.w	r3, r3, #4
 80015b6:	2b81      	cmp	r3, #129	; 0x81
 80015b8:	d11b      	bne.n	80015f2 <HAL_RCC_OscConfig+0x3ca>
 80015ba:	f7ff f943 	bl	8000844 <HAL_GetTick>
 80015be:	f8d5 3090 	ldr.w	r3, [r5, #144]	; 0x90
 80015c2:	f043 0380 	orr.w	r3, r3, #128	; 0x80
 80015c6:	f8c5 3090 	str.w	r3, [r5, #144]	; 0x90
 80015ca:	4607      	mov	r7, r0
 80015cc:	f04f 45b0 	mov.w	r5, #1476395008	; 0x58000000
 80015d0:	f241 3888 	movw	r8, #5000	; 0x1388
 80015d4:	f8d5 3090 	ldr.w	r3, [r5, #144]	; 0x90
 80015d8:	0518      	lsls	r0, r3, #20
 80015da:	d504      	bpl.n	80015e6 <HAL_RCC_OscConfig+0x3be>
 80015dc:	6ae0      	ldr	r0, [r4, #44]	; 0x2c
 80015de:	2800      	cmp	r0, #0
 80015e0:	d14a      	bne.n	8001678 <HAL_RCC_OscConfig+0x450>
 80015e2:	2000      	movs	r0, #0
 80015e4:	e666      	b.n	80012b4 <HAL_RCC_OscConfig+0x8c>
 80015e6:	f7ff f92d 	bl	8000844 <HAL_GetTick>
 80015ea:	1bc0      	subs	r0, r0, r7
 80015ec:	4540      	cmp	r0, r8
 80015ee:	d9f1      	bls.n	80015d4 <HAL_RCC_OscConfig+0x3ac>
 80015f0:	e6cf      	b.n	8001392 <HAL_RCC_OscConfig+0x16a>
 80015f2:	f7ff f927 	bl	8000844 <HAL_GetTick>
 80015f6:	f8d5 3090 	ldr.w	r3, [r5, #144]	; 0x90
 80015fa:	f023 0380 	bic.w	r3, r3, #128	; 0x80
 80015fe:	f8c5 3090 	str.w	r3, [r5, #144]	; 0x90
 8001602:	4607      	mov	r7, r0
 8001604:	f04f 45b0 	mov.w	r5, #1476395008	; 0x58000000
 8001608:	f241 3888 	movw	r8, #5000	; 0x1388
 800160c:	f8d5 3090 	ldr.w	r3, [r5, #144]	; 0x90
 8001610:	0519      	lsls	r1, r3, #20
 8001612:	d5e3      	bpl.n	80015dc <HAL_RCC_OscConfig+0x3b4>
 8001614:	f7ff f916 	bl	8000844 <HAL_GetTick>
 8001618:	1bc0      	subs	r0, r0, r7
 800161a:	4540      	cmp	r0, r8
 800161c:	d9f6      	bls.n	800160c <HAL_RCC_OscConfig+0x3e4>
 800161e:	e6b8      	b.n	8001392 <HAL_RCC_OscConfig+0x16a>
 8001620:	f7ff f910 	bl	8000844 <HAL_GetTick>
 8001624:	f8d5 3090 	ldr.w	r3, [r5, #144]	; 0x90
 8001628:	f023 0380 	bic.w	r3, r3, #128	; 0x80
 800162c:	4607      	mov	r7, r0
 800162e:	f8c5 3090 	str.w	r3, [r5, #144]	; 0x90
 8001632:	f241 3888 	movw	r8, #5000	; 0x1388
 8001636:	f8d5 3090 	ldr.w	r3, [r5, #144]	; 0x90
 800163a:	051a      	lsls	r2, r3, #20
 800163c:	d416      	bmi.n	800166c <HAL_RCC_OscConfig+0x444>
 800163e:	f7ff f901 	bl	8000844 <HAL_GetTick>
 8001642:	f8d5 3090 	ldr.w	r3, [r5, #144]	; 0x90
 8001646:	f023 0301 	bic.w	r3, r3, #1
 800164a:	f8c5 3090 	str.w	r3, [r5, #144]	; 0x90
 800164e:	4607      	mov	r7, r0
 8001650:	f04f 48b0 	mov.w	r8, #1476395008	; 0x58000000
 8001654:	f241 3588 	movw	r5, #5000	; 0x1388
 8001658:	f8d8 3090 	ldr.w	r3, [r8, #144]	; 0x90
 800165c:	079b      	lsls	r3, r3, #30
 800165e:	d5bd      	bpl.n	80015dc <HAL_RCC_OscConfig+0x3b4>
 8001660:	f7ff f8f0 	bl	8000844 <HAL_GetTick>
 8001664:	1bc3      	subs	r3, r0, r7
 8001666:	42ab      	cmp	r3, r5
 8001668:	d9f6      	bls.n	8001658 <HAL_RCC_OscConfig+0x430>
 800166a:	e692      	b.n	8001392 <HAL_RCC_OscConfig+0x16a>
 800166c:	f7ff f8ea 	bl	8000844 <HAL_GetTick>
 8001670:	1bc0      	subs	r0, r0, r7
 8001672:	4540      	cmp	r0, r8
 8001674:	d9df      	bls.n	8001636 <HAL_RCC_OscConfig+0x40e>
 8001676:	e68c      	b.n	8001392 <HAL_RCC_OscConfig+0x16a>
 8001678:	2e0c      	cmp	r6, #12
 800167a:	d053      	beq.n	8001724 <HAL_RCC_OscConfig+0x4fc>
 800167c:	f04f 43b0 	mov.w	r3, #1476395008	; 0x58000000
 8001680:	2802      	cmp	r0, #2
 8001682:	681a      	ldr	r2, [r3, #0]
 8001684:	f022 7280 	bic.w	r2, r2, #16777216	; 0x1000000
 8001688:	601a      	str	r2, [r3, #0]
 800168a:	d133      	bne.n	80016f4 <HAL_RCC_OscConfig+0x4cc>
 800168c:	f7ff f8da 	bl	8000844 <HAL_GetTick>
 8001690:	4605      	mov	r5, r0
 8001692:	f7ff fcda 	bl	800104a <LL_RCC_PLL_IsReady>
 8001696:	bb38      	cbnz	r0, 80016e8 <HAL_RCC_OscConfig+0x4c0>
 8001698:	e9d4 310c 	ldrd	r3, r1, [r4, #48]	; 0x30
 800169c:	f04f 42b0 	mov.w	r2, #1476395008	; 0x58000000
 80016a0:	430b      	orrs	r3, r1
 80016a2:	68d0      	ldr	r0, [r2, #12]
 80016a4:	492f      	ldr	r1, [pc, #188]	; (8001764 <HAL_RCC_OscConfig+0x53c>)
 80016a6:	4001      	ands	r1, r0
 80016a8:	430b      	orrs	r3, r1
 80016aa:	6be1      	ldr	r1, [r4, #60]	; 0x3c
 80016ac:	430b      	orrs	r3, r1
 80016ae:	6c21      	ldr	r1, [r4, #64]	; 0x40
 80016b0:	430b      	orrs	r3, r1
 80016b2:	6c61      	ldr	r1, [r4, #68]	; 0x44
 80016b4:	430b      	orrs	r3, r1
 80016b6:	6ba1      	ldr	r1, [r4, #56]	; 0x38
 80016b8:	ea43 2301 	orr.w	r3, r3, r1, lsl #8
 80016bc:	60d3      	str	r3, [r2, #12]
 80016be:	6813      	ldr	r3, [r2, #0]
 80016c0:	f043 7380 	orr.w	r3, r3, #16777216	; 0x1000000
 80016c4:	6013      	str	r3, [r2, #0]
 80016c6:	68d3      	ldr	r3, [r2, #12]
 80016c8:	f043 5380 	orr.w	r3, r3, #268435456	; 0x10000000
 80016cc:	60d3      	str	r3, [r2, #12]
 80016ce:	f7ff f8b9 	bl	8000844 <HAL_GetTick>
 80016d2:	4604      	mov	r4, r0
 80016d4:	f7ff fcb9 	bl	800104a <LL_RCC_PLL_IsReady>
 80016d8:	2800      	cmp	r0, #0
 80016da:	d182      	bne.n	80015e2 <HAL_RCC_OscConfig+0x3ba>
 80016dc:	f7ff f8b2 	bl	8000844 <HAL_GetTick>
 80016e0:	1b00      	subs	r0, r0, r4
 80016e2:	280a      	cmp	r0, #10
 80016e4:	d9f6      	bls.n	80016d4 <HAL_RCC_OscConfig+0x4ac>
 80016e6:	e654      	b.n	8001392 <HAL_RCC_OscConfig+0x16a>
 80016e8:	f7ff f8ac 	bl	8000844 <HAL_GetTick>
 80016ec:	1b40      	subs	r0, r0, r5
 80016ee:	280a      	cmp	r0, #10
 80016f0:	d9cf      	bls.n	8001692 <HAL_RCC_OscConfig+0x46a>
 80016f2:	e64e      	b.n	8001392 <HAL_RCC_OscConfig+0x16a>
 80016f4:	68da      	ldr	r2, [r3, #12]
 80016f6:	f022 0203 	bic.w	r2, r2, #3
 80016fa:	60da      	str	r2, [r3, #12]
 80016fc:	68da      	ldr	r2, [r3, #12]
 80016fe:	f022 5288 	bic.w	r2, r2, #285212672	; 0x11000000
 8001702:	f422 3280 	bic.w	r2, r2, #65536	; 0x10000
 8001706:	60da      	str	r2, [r3, #12]
 8001708:	f7ff f89c 	bl	8000844 <HAL_GetTick>
 800170c:	4604      	mov	r4, r0
 800170e:	f7ff fc9c 	bl	800104a <LL_RCC_PLL_IsReady>
 8001712:	2800      	cmp	r0, #0
 8001714:	f43f af65 	beq.w	80015e2 <HAL_RCC_OscConfig+0x3ba>
 8001718:	f7ff f894 	bl	8000844 <HAL_GetTick>
 800171c:	1b00      	subs	r0, r0, r4
 800171e:	280a      	cmp	r0, #10
 8001720:	d9f5      	bls.n	800170e <HAL_RCC_OscConfig+0x4e6>
 8001722:	e636      	b.n	8001392 <HAL_RCC_OscConfig+0x16a>
 8001724:	2801      	cmp	r0, #1
 8001726:	f43f adc5 	beq.w	80012b4 <HAL_RCC_OscConfig+0x8c>
 800172a:	f04f 43b0 	mov.w	r3, #1476395008	; 0x58000000
 800172e:	6b22      	ldr	r2, [r4, #48]	; 0x30
 8001730:	68db      	ldr	r3, [r3, #12]
 8001732:	f003 0103 	and.w	r1, r3, #3
 8001736:	4291      	cmp	r1, r2
 8001738:	f47f add1 	bne.w	80012de <HAL_RCC_OscConfig+0xb6>
 800173c:	6b61      	ldr	r1, [r4, #52]	; 0x34
 800173e:	f003 0270 	and.w	r2, r3, #112	; 0x70
 8001742:	428a      	cmp	r2, r1
 8001744:	f47f adcb 	bne.w	80012de <HAL_RCC_OscConfig+0xb6>
 8001748:	6ba1      	ldr	r1, [r4, #56]	; 0x38
 800174a:	f403 42fe 	and.w	r2, r3, #32512	; 0x7f00
 800174e:	ebb2 2f01 	cmp.w	r2, r1, lsl #8
 8001752:	f47f adc4 	bne.w	80012de <HAL_RCC_OscConfig+0xb6>
 8001756:	6c62      	ldr	r2, [r4, #68]	; 0x44
 8001758:	f003 4360 	and.w	r3, r3, #3758096384	; 0xe0000000
 800175c:	4293      	cmp	r3, r2
 800175e:	f43f af40 	beq.w	80015e2 <HAL_RCC_OscConfig+0x3ba>
 8001762:	e5bc      	b.n	80012de <HAL_RCC_OscConfig+0xb6>
 8001764:	11c1808c 	.word	0x11c1808c

08001768 <HAL_RCC_ClockConfig>:
 8001768:	e92d 41f0 	stmdb	sp!, {r4, r5, r6, r7, r8, lr}
 800176c:	460d      	mov	r5, r1
 800176e:	4604      	mov	r4, r0
 8001770:	b910      	cbnz	r0, 8001778 <HAL_RCC_ClockConfig+0x10>
 8001772:	2001      	movs	r0, #1
 8001774:	e8bd 81f0 	ldmia.w	sp!, {r4, r5, r6, r7, r8, pc}
 8001778:	4e67      	ldr	r6, [pc, #412]	; (8001918 <HAL_RCC_ClockConfig+0x1b0>)
 800177a:	6833      	ldr	r3, [r6, #0]
 800177c:	f003 0307 	and.w	r3, r3, #7
 8001780:	428b      	cmp	r3, r1
 8001782:	d316      	bcc.n	80017b2 <HAL_RCC_ClockConfig+0x4a>
 8001784:	6823      	ldr	r3, [r4, #0]
 8001786:	0798      	lsls	r0, r3, #30
 8001788:	d527      	bpl.n	80017da <HAL_RCC_ClockConfig+0x72>
 800178a:	f04f 46b0 	mov.w	r6, #1476395008	; 0x58000000
 800178e:	68a2      	ldr	r2, [r4, #8]
 8001790:	68b3      	ldr	r3, [r6, #8]
 8001792:	f023 03f0 	bic.w	r3, r3, #240	; 0xf0
 8001796:	4313      	orrs	r3, r2
 8001798:	60b3      	str	r3, [r6, #8]
 800179a:	f7ff f853 	bl	8000844 <HAL_GetTick>
 800179e:	4607      	mov	r7, r0
 80017a0:	68b3      	ldr	r3, [r6, #8]
 80017a2:	03d9      	lsls	r1, r3, #15
 80017a4:	d419      	bmi.n	80017da <HAL_RCC_ClockConfig+0x72>
 80017a6:	f7ff f84d 	bl	8000844 <HAL_GetTick>
 80017aa:	1bc3      	subs	r3, r0, r7
 80017ac:	2b02      	cmp	r3, #2
 80017ae:	d9f7      	bls.n	80017a0 <HAL_RCC_ClockConfig+0x38>
 80017b0:	e011      	b.n	80017d6 <HAL_RCC_ClockConfig+0x6e>
 80017b2:	6833      	ldr	r3, [r6, #0]
 80017b4:	f023 0307 	bic.w	r3, r3, #7
 80017b8:	430b      	orrs	r3, r1
 80017ba:	6033      	str	r3, [r6, #0]
 80017bc:	f7ff f842 	bl	8000844 <HAL_GetTick>
 80017c0:	4607      	mov	r7, r0
 80017c2:	6833      	ldr	r3, [r6, #0]
 80017c4:	f003 0307 	and.w	r3, r3, #7
 80017c8:	42ab      	cmp	r3, r5
 80017ca:	d0db      	beq.n	8001784 <HAL_RCC_ClockConfig+0x1c>
 80017cc:	f7ff f83a 	bl	8000844 <HAL_GetTick>
 80017d0:	1bc0      	subs	r0, r0, r7
 80017d2:	2802      	cmp	r0, #2
 80017d4:	d9f5      	bls.n	80017c2 <HAL_RCC_ClockConfig+0x5a>
 80017d6:	2003      	movs	r0, #3
 80017d8:	e7cc      	b.n	8001774 <HAL_RCC_ClockConfig+0xc>
 80017da:	6823      	ldr	r3, [r4, #0]
 80017dc:	065a      	lsls	r2, r3, #25
 80017de:	d517      	bpl.n	8001810 <HAL_RCC_ClockConfig+0xa8>
 80017e0:	f04f 46b0 	mov.w	r6, #1476395008	; 0x58000000
 80017e4:	6962      	ldr	r2, [r4, #20]
 80017e6:	f8d6 3108 	ldr.w	r3, [r6, #264]	; 0x108
 80017ea:	f023 030f 	bic.w	r3, r3, #15
 80017ee:	ea43 1312 	orr.w	r3, r3, r2, lsr #4
 80017f2:	f8c6 3108 	str.w	r3, [r6, #264]	; 0x108
 80017f6:	f7ff f825 	bl	8000844 <HAL_GetTick>
 80017fa:	4607      	mov	r7, r0
 80017fc:	f8d6 3108 	ldr.w	r3, [r6, #264]	; 0x108
 8001800:	03db      	lsls	r3, r3, #15
 8001802:	d405      	bmi.n	8001810 <HAL_RCC_ClockConfig+0xa8>
 8001804:	f7ff f81e 	bl	8000844 <HAL_GetTick>
 8001808:	1bc3      	subs	r3, r0, r7
 800180a:	2b02      	cmp	r3, #2
 800180c:	d9f6      	bls.n	80017fc <HAL_RCC_ClockConfig+0x94>
 800180e:	e7e2      	b.n	80017d6 <HAL_RCC_ClockConfig+0x6e>
 8001810:	6823      	ldr	r3, [r4, #0]
 8001812:	075e      	lsls	r6, r3, #29
 8001814:	d513      	bpl.n	800183e <HAL_RCC_ClockConfig+0xd6>
 8001816:	f04f 46b0 	mov.w	r6, #1476395008	; 0x58000000
 800181a:	68e2      	ldr	r2, [r4, #12]
 800181c:	68b3      	ldr	r3, [r6, #8]
 800181e:	f423 63e0 	bic.w	r3, r3, #1792	; 0x700
 8001822:	4313      	orrs	r3, r2
 8001824:	60b3      	str	r3, [r6, #8]
 8001826:	f7ff f80d 	bl	8000844 <HAL_GetTick>
 800182a:	4607      	mov	r7, r0
 800182c:	68b3      	ldr	r3, [r6, #8]
 800182e:	0398      	lsls	r0, r3, #14
 8001830:	d405      	bmi.n	800183e <HAL_RCC_ClockConfig+0xd6>
 8001832:	f7ff f807 	bl	8000844 <HAL_GetTick>
 8001836:	1bc3      	subs	r3, r0, r7
 8001838:	2b02      	cmp	r3, #2
 800183a:	d9f7      	bls.n	800182c <HAL_RCC_ClockConfig+0xc4>
 800183c:	e7cb      	b.n	80017d6 <HAL_RCC_ClockConfig+0x6e>
 800183e:	6823      	ldr	r3, [r4, #0]
 8001840:	0719      	lsls	r1, r3, #28
 8001842:	d514      	bpl.n	800186e <HAL_RCC_ClockConfig+0x106>
 8001844:	f04f 46b0 	mov.w	r6, #1476395008	; 0x58000000
 8001848:	6922      	ldr	r2, [r4, #16]
 800184a:	68b3      	ldr	r3, [r6, #8]
 800184c:	f423 5360 	bic.w	r3, r3, #14336	; 0x3800
 8001850:	ea43 03c2 	orr.w	r3, r3, r2, lsl #3
 8001854:	60b3      	str	r3, [r6, #8]
 8001856:	f7fe fff5 	bl	8000844 <HAL_GetTick>
 800185a:	4607      	mov	r7, r0
 800185c:	68b3      	ldr	r3, [r6, #8]
 800185e:	035a      	lsls	r2, r3, #13
 8001860:	d405      	bmi.n	800186e <HAL_RCC_ClockConfig+0x106>
 8001862:	f7fe ffef 	bl	8000844 <HAL_GetTick>
 8001866:	1bc3      	subs	r3, r0, r7
 8001868:	2b02      	cmp	r3, #2
 800186a:	d9f7      	bls.n	800185c <HAL_RCC_ClockConfig+0xf4>
 800186c:	e7b3      	b.n	80017d6 <HAL_RCC_ClockConfig+0x6e>
 800186e:	6823      	ldr	r3, [r4, #0]
 8001870:	07db      	lsls	r3, r3, #31
 8001872:	d40f      	bmi.n	8001894 <HAL_RCC_ClockConfig+0x12c>
 8001874:	4c28      	ldr	r4, [pc, #160]	; (8001918 <HAL_RCC_ClockConfig+0x1b0>)
 8001876:	6823      	ldr	r3, [r4, #0]
 8001878:	f003 0307 	and.w	r3, r3, #7
 800187c:	42ab      	cmp	r3, r5
 800187e:	d837      	bhi.n	80018f0 <HAL_RCC_ClockConfig+0x188>
 8001880:	f7ff fcc2 	bl	8001208 <HAL_RCC_GetHCLKFreq>
 8001884:	4b25      	ldr	r3, [pc, #148]	; (800191c <HAL_RCC_ClockConfig+0x1b4>)
 8001886:	6018      	str	r0, [r3, #0]
 8001888:	4b25      	ldr	r3, [pc, #148]	; (8001920 <HAL_RCC_ClockConfig+0x1b8>)
 800188a:	e8bd 41f0 	ldmia.w	sp!, {r4, r5, r6, r7, r8, lr}
 800188e:	6818      	ldr	r0, [r3, #0]
 8001890:	f7fe bf90 	b.w	80007b4 <HAL_InitTick>
 8001894:	6863      	ldr	r3, [r4, #4]
 8001896:	2b02      	cmp	r3, #2
 8001898:	d11e      	bne.n	80018d8 <HAL_RCC_ClockConfig+0x170>
 800189a:	f7ff fbbb 	bl	8001014 <LL_RCC_HSE_IsReady>
 800189e:	2800      	cmp	r0, #0
 80018a0:	f43f af67 	beq.w	8001772 <HAL_RCC_ClockConfig+0xa>
 80018a4:	f04f 46b0 	mov.w	r6, #1476395008	; 0x58000000
 80018a8:	6862      	ldr	r2, [r4, #4]
 80018aa:	68b3      	ldr	r3, [r6, #8]
 80018ac:	f023 0303 	bic.w	r3, r3, #3
 80018b0:	4313      	orrs	r3, r2
 80018b2:	60b3      	str	r3, [r6, #8]
 80018b4:	f7fe ffc6 	bl	8000844 <HAL_GetTick>
 80018b8:	f241 3888 	movw	r8, #5000	; 0x1388
 80018bc:	4607      	mov	r7, r0
 80018be:	68b3      	ldr	r3, [r6, #8]
 80018c0:	6862      	ldr	r2, [r4, #4]
 80018c2:	f003 030c 	and.w	r3, r3, #12
 80018c6:	ebb3 0f82 	cmp.w	r3, r2, lsl #2
 80018ca:	d0d3      	beq.n	8001874 <HAL_RCC_ClockConfig+0x10c>
 80018cc:	f7fe ffba 	bl	8000844 <HAL_GetTick>
 80018d0:	1bc0      	subs	r0, r0, r7
 80018d2:	4540      	cmp	r0, r8
 80018d4:	d9f3      	bls.n	80018be <HAL_RCC_ClockConfig+0x156>
 80018d6:	e77e      	b.n	80017d6 <HAL_RCC_ClockConfig+0x6e>
 80018d8:	2b03      	cmp	r3, #3
 80018da:	d102      	bne.n	80018e2 <HAL_RCC_ClockConfig+0x17a>
 80018dc:	f7ff fbb5 	bl	800104a <LL_RCC_PLL_IsReady>
 80018e0:	e7dd      	b.n	800189e <HAL_RCC_ClockConfig+0x136>
 80018e2:	b913      	cbnz	r3, 80018ea <HAL_RCC_ClockConfig+0x182>
 80018e4:	f7ff fba2 	bl	800102c <LL_RCC_MSI_IsReady>
 80018e8:	e7d9      	b.n	800189e <HAL_RCC_ClockConfig+0x136>
 80018ea:	f7ff fb99 	bl	8001020 <LL_RCC_HSI_IsReady>
 80018ee:	e7d6      	b.n	800189e <HAL_RCC_ClockConfig+0x136>
 80018f0:	6823      	ldr	r3, [r4, #0]
 80018f2:	f023 0307 	bic.w	r3, r3, #7
 80018f6:	432b      	orrs	r3, r5
 80018f8:	6023      	str	r3, [r4, #0]
 80018fa:	f7fe ffa3 	bl	8000844 <HAL_GetTick>
 80018fe:	4606      	mov	r6, r0
 8001900:	6823      	ldr	r3, [r4, #0]
 8001902:	f003 0307 	and.w	r3, r3, #7
 8001906:	42ab      	cmp	r3, r5
 8001908:	d0ba      	beq.n	8001880 <HAL_RCC_ClockConfig+0x118>
 800190a:	f7fe ff9b 	bl	8000844 <HAL_GetTick>
 800190e:	1b80      	subs	r0, r0, r6
 8001910:	2802      	cmp	r0, #2
 8001912:	d9f5      	bls.n	8001900 <HAL_RCC_ClockConfig+0x198>
 8001914:	e75f      	b.n	80017d6 <HAL_RCC_ClockConfig+0x6e>
 8001916:	bf00      	nop
 8001918:	58004000 	.word	0x58004000
 800191c:	20000008 	.word	0x20000008
 8001920:	20000010 	.word	0x20000010

08001924 <LL_RCC_LSE_IsReady>:
 8001924:	f04f 43b0 	mov.w	r3, #1476395008	; 0x58000000
 8001928:	f8d3 0090 	ldr.w	r0, [r3, #144]	; 0x90
 800192c:	f3c0 0040 	ubfx	r0, r0, #1, #1
 8001930:	4770      	bx	lr

08001932 <LL_RCC_SetI2CClockSource>:
 8001932:	f04f 41b0 	mov.w	r1, #1476395008	; 0x58000000
 8001936:	0902      	lsrs	r2, r0, #4
 8001938:	f8d1 3088 	ldr.w	r3, [r1, #136]	; 0x88
 800193c:	f402 227f 	and.w	r2, r2, #1044480	; 0xff000
 8001940:	0100      	lsls	r0, r0, #4
 8001942:	ea23 0302 	bic.w	r3, r3, r2
 8001946:	f400 207f 	and.w	r0, r0, #1044480	; 0xff000
 800194a:	4318      	orrs	r0, r3
 800194c:	f8c1 0088 	str.w	r0, [r1, #136]	; 0x88
 8001950:	4770      	bx	lr

08001952 <LL_RCC_SetLPTIMClockSource>:
 8001952:	f04f 41b0 	mov.w	r1, #1476395008	; 0x58000000
 8001956:	0c02      	lsrs	r2, r0, #16
 8001958:	f8d1 3088 	ldr.w	r3, [r1, #136]	; 0x88
 800195c:	0412      	lsls	r2, r2, #16
 800195e:	ea23 0302 	bic.w	r3, r3, r2
 8001962:	ea43 4000 	orr.w	r0, r3, r0, lsl #16
 8001966:	f8c1 0088 	str.w	r0, [r1, #136]	; 0x88
 800196a:	4770      	bx	lr

0800196c <HAL_RCCEx_PeriphCLKConfig>:
 800196c:	b570      	push	{r4, r5, r6, lr}
 800196e:	6805      	ldr	r5, [r0, #0]
 8001970:	f415 3580 	ands.w	r5, r5, #65536	; 0x10000
 8001974:	4604      	mov	r4, r0
 8001976:	d038      	beq.n	80019ea <HAL_RCCEx_PeriphCLKConfig+0x7e>
 8001978:	f7ff fb3c 	bl	8000ff4 <HAL_PWR_EnableBkUpAccess>
 800197c:	f7fe ff62 	bl	8000844 <HAL_GetTick>
 8001980:	4e64      	ldr	r6, [pc, #400]	; (8001b14 <HAL_RCCEx_PeriphCLKConfig+0x1a8>)
 8001982:	4605      	mov	r5, r0
 8001984:	6833      	ldr	r3, [r6, #0]
 8001986:	05db      	lsls	r3, r3, #23
 8001988:	d529      	bpl.n	80019de <HAL_RCCEx_PeriphCLKConfig+0x72>
 800198a:	f04f 43b0 	mov.w	r3, #1476395008	; 0x58000000
 800198e:	6b61      	ldr	r1, [r4, #52]	; 0x34
 8001990:	f8d3 2090 	ldr.w	r2, [r3, #144]	; 0x90
 8001994:	f402 7240 	and.w	r2, r2, #768	; 0x300
 8001998:	4291      	cmp	r1, r2
 800199a:	d014      	beq.n	80019c6 <HAL_RCCEx_PeriphCLKConfig+0x5a>
 800199c:	f8d3 1090 	ldr.w	r1, [r3, #144]	; 0x90
 80019a0:	f8d3 2090 	ldr.w	r2, [r3, #144]	; 0x90
 80019a4:	f442 3280 	orr.w	r2, r2, #65536	; 0x10000
 80019a8:	f8c3 2090 	str.w	r2, [r3, #144]	; 0x90
 80019ac:	f8d3 2090 	ldr.w	r2, [r3, #144]	; 0x90
 80019b0:	f421 7040 	bic.w	r0, r1, #768	; 0x300
 80019b4:	f422 3280 	bic.w	r2, r2, #65536	; 0x10000
 80019b8:	078d      	lsls	r5, r1, #30
 80019ba:	f8c3 2090 	str.w	r2, [r3, #144]	; 0x90
 80019be:	f8c3 0090 	str.w	r0, [r3, #144]	; 0x90
 80019c2:	f100 8096 	bmi.w	8001af2 <HAL_RCCEx_PeriphCLKConfig+0x186>
 80019c6:	f04f 42b0 	mov.w	r2, #1476395008	; 0x58000000
 80019ca:	6b61      	ldr	r1, [r4, #52]	; 0x34
 80019cc:	f8d2 3090 	ldr.w	r3, [r2, #144]	; 0x90
 80019d0:	f423 7340 	bic.w	r3, r3, #768	; 0x300
 80019d4:	430b      	orrs	r3, r1
 80019d6:	f8c2 3090 	str.w	r3, [r2, #144]	; 0x90
 80019da:	2500      	movs	r5, #0
 80019dc:	e005      	b.n	80019ea <HAL_RCCEx_PeriphCLKConfig+0x7e>
 80019de:	f7fe ff31 	bl	8000844 <HAL_GetTick>
 80019e2:	1b40      	subs	r0, r0, r5
 80019e4:	2802      	cmp	r0, #2
 80019e6:	d9cd      	bls.n	8001984 <HAL_RCCEx_PeriphCLKConfig+0x18>
 80019e8:	2503      	movs	r5, #3
 80019ea:	6822      	ldr	r2, [r4, #0]
 80019ec:	07d0      	lsls	r0, r2, #31
 80019ee:	d50a      	bpl.n	8001a06 <HAL_RCCEx_PeriphCLKConfig+0x9a>
 80019f0:	f04f 40b0 	mov.w	r0, #1476395008	; 0x58000000
 80019f4:	6861      	ldr	r1, [r4, #4]
 80019f6:	f8d0 3088 	ldr.w	r3, [r0, #136]	; 0x88
 80019fa:	ea23 4311 	bic.w	r3, r3, r1, lsr #16
 80019fe:	b289      	uxth	r1, r1
 8001a00:	430b      	orrs	r3, r1
 8001a02:	f8c0 3088 	str.w	r3, [r0, #136]	; 0x88
 8001a06:	0791      	lsls	r1, r2, #30
 8001a08:	d50a      	bpl.n	8001a20 <HAL_RCCEx_PeriphCLKConfig+0xb4>
 8001a0a:	f04f 40b0 	mov.w	r0, #1476395008	; 0x58000000
 8001a0e:	68a1      	ldr	r1, [r4, #8]
 8001a10:	f8d0 3088 	ldr.w	r3, [r0, #136]	; 0x88
 8001a14:	ea23 4311 	bic.w	r3, r3, r1, lsr #16
 8001a18:	b289      	uxth	r1, r1
 8001a1a:	430b      	orrs	r3, r1
 8001a1c:	f8c0 3088 	str.w	r3, [r0, #136]	; 0x88
 8001a20:	0693      	lsls	r3, r2, #26
 8001a22:	d509      	bpl.n	8001a38 <HAL_RCCEx_PeriphCLKConfig+0xcc>
 8001a24:	f04f 41b0 	mov.w	r1, #1476395008	; 0x58000000
 8001a28:	6920      	ldr	r0, [r4, #16]
 8001a2a:	f8d1 3088 	ldr.w	r3, [r1, #136]	; 0x88
 8001a2e:	f423 6340 	bic.w	r3, r3, #3072	; 0xc00
 8001a32:	4303      	orrs	r3, r0
 8001a34:	f8c1 3088 	str.w	r3, [r1, #136]	; 0x88
 8001a38:	0596      	lsls	r6, r2, #22
 8001a3a:	d502      	bpl.n	8001a42 <HAL_RCCEx_PeriphCLKConfig+0xd6>
 8001a3c:	6a20      	ldr	r0, [r4, #32]
 8001a3e:	f7ff ff88 	bl	8001952 <LL_RCC_SetLPTIMClockSource>
 8001a42:	6823      	ldr	r3, [r4, #0]
 8001a44:	0558      	lsls	r0, r3, #21
 8001a46:	d502      	bpl.n	8001a4e <HAL_RCCEx_PeriphCLKConfig+0xe2>
 8001a48:	6a60      	ldr	r0, [r4, #36]	; 0x24
 8001a4a:	f7ff ff82 	bl	8001952 <LL_RCC_SetLPTIMClockSource>
 8001a4e:	6823      	ldr	r3, [r4, #0]
 8001a50:	0519      	lsls	r1, r3, #20
 8001a52:	d502      	bpl.n	8001a5a <HAL_RCCEx_PeriphCLKConfig+0xee>
 8001a54:	6aa0      	ldr	r0, [r4, #40]	; 0x28
 8001a56:	f7ff ff7c 	bl	8001952 <LL_RCC_SetLPTIMClockSource>
 8001a5a:	6823      	ldr	r3, [r4, #0]
 8001a5c:	065a      	lsls	r2, r3, #25
 8001a5e:	d502      	bpl.n	8001a66 <HAL_RCCEx_PeriphCLKConfig+0xfa>
 8001a60:	6960      	ldr	r0, [r4, #20]
 8001a62:	f7ff ff66 	bl	8001932 <LL_RCC_SetI2CClockSource>
 8001a66:	6823      	ldr	r3, [r4, #0]
 8001a68:	061b      	lsls	r3, r3, #24
 8001a6a:	d502      	bpl.n	8001a72 <HAL_RCCEx_PeriphCLKConfig+0x106>
 8001a6c:	69a0      	ldr	r0, [r4, #24]
 8001a6e:	f7ff ff60 	bl	8001932 <LL_RCC_SetI2CClockSource>
 8001a72:	6823      	ldr	r3, [r4, #0]
 8001a74:	05de      	lsls	r6, r3, #23
 8001a76:	d502      	bpl.n	8001a7e <HAL_RCCEx_PeriphCLKConfig+0x112>
 8001a78:	69e0      	ldr	r0, [r4, #28]
 8001a7a:	f7ff ff5a 	bl	8001932 <LL_RCC_SetI2CClockSource>
 8001a7e:	6821      	ldr	r1, [r4, #0]
 8001a80:	06c8      	lsls	r0, r1, #27
 8001a82:	d510      	bpl.n	8001aa6 <HAL_RCCEx_PeriphCLKConfig+0x13a>
 8001a84:	f04f 42b0 	mov.w	r2, #1476395008	; 0x58000000
 8001a88:	68e0      	ldr	r0, [r4, #12]
 8001a8a:	f8d2 3088 	ldr.w	r3, [r2, #136]	; 0x88
 8001a8e:	f423 7340 	bic.w	r3, r3, #768	; 0x300
 8001a92:	4303      	orrs	r3, r0
 8001a94:	f8c2 3088 	str.w	r3, [r2, #136]	; 0x88
 8001a98:	f5b0 7f80 	cmp.w	r0, #256	; 0x100
 8001a9c:	bf02      	ittt	eq
 8001a9e:	68d3      	ldreq	r3, [r2, #12]
 8001aa0:	f043 7380 	orreq.w	r3, r3, #16777216	; 0x1000000
 8001aa4:	60d3      	streq	r3, [r2, #12]
 8001aa6:	040a      	lsls	r2, r1, #16
 8001aa8:	d50e      	bpl.n	8001ac8 <HAL_RCCEx_PeriphCLKConfig+0x15c>
 8001aaa:	f04f 42b0 	mov.w	r2, #1476395008	; 0x58000000
 8001aae:	6b20      	ldr	r0, [r4, #48]	; 0x30
 8001ab0:	f8d2 3088 	ldr.w	r3, [r2, #136]	; 0x88
 8001ab4:	f023 4340 	bic.w	r3, r3, #3221225472	; 0xc0000000
 8001ab8:	4303      	orrs	r3, r0
 8001aba:	f8c2 3088 	str.w	r3, [r2, #136]	; 0x88
 8001abe:	b918      	cbnz	r0, 8001ac8 <HAL_RCCEx_PeriphCLKConfig+0x15c>
 8001ac0:	68d3      	ldr	r3, [r2, #12]
 8001ac2:	f043 7380 	orr.w	r3, r3, #16777216	; 0x1000000
 8001ac6:	60d3      	str	r3, [r2, #12]
 8001ac8:	044b      	lsls	r3, r1, #17
 8001aca:	d510      	bpl.n	8001aee <HAL_RCCEx_PeriphCLKConfig+0x182>
 8001acc:	f04f 42b0 	mov.w	r2, #1476395008	; 0x58000000
 8001ad0:	6ae1      	ldr	r1, [r4, #44]	; 0x2c
 8001ad2:	f8d2 3088 	ldr.w	r3, [r2, #136]	; 0x88
 8001ad6:	f023 5340 	bic.w	r3, r3, #805306368	; 0x30000000
 8001ada:	430b      	orrs	r3, r1
 8001adc:	f1b1 5f00 	cmp.w	r1, #536870912	; 0x20000000
 8001ae0:	f8c2 3088 	str.w	r3, [r2, #136]	; 0x88
 8001ae4:	d103      	bne.n	8001aee <HAL_RCCEx_PeriphCLKConfig+0x182>
 8001ae6:	68d3      	ldr	r3, [r2, #12]
 8001ae8:	f443 3380 	orr.w	r3, r3, #65536	; 0x10000
 8001aec:	60d3      	str	r3, [r2, #12]
 8001aee:	4628      	mov	r0, r5
 8001af0:	bd70      	pop	{r4, r5, r6, pc}
 8001af2:	f7fe fea7 	bl	8000844 <HAL_GetTick>
 8001af6:	f241 3688 	movw	r6, #5000	; 0x1388
 8001afa:	4605      	mov	r5, r0
 8001afc:	f7ff ff12 	bl	8001924 <LL_RCC_LSE_IsReady>
 8001b00:	2801      	cmp	r0, #1
 8001b02:	f43f af60 	beq.w	80019c6 <HAL_RCCEx_PeriphCLKConfig+0x5a>
 8001b06:	f7fe fe9d 	bl	8000844 <HAL_GetTick>
 8001b0a:	1b40      	subs	r0, r0, r5
 8001b0c:	42b0      	cmp	r0, r6
 8001b0e:	d9f5      	bls.n	8001afc <HAL_RCCEx_PeriphCLKConfig+0x190>
 8001b10:	e76a      	b.n	80019e8 <HAL_RCCEx_PeriphCLKConfig+0x7c>
 8001b12:	bf00      	nop
 8001b14:	58000400 	.word	0x58000400

08001b18 <__libc_init_array>:
 8001b18:	b570      	push	{r4, r5, r6, lr}
 8001b1a:	4d0d      	ldr	r5, [pc, #52]	; (8001b50 <__libc_init_array+0x38>)
 8001b1c:	4c0d      	ldr	r4, [pc, #52]	; (8001b54 <__libc_init_array+0x3c>)
 8001b1e:	1b64      	subs	r4, r4, r5
 8001b20:	10a4      	asrs	r4, r4, #2
 8001b22:	2600      	movs	r6, #0
 8001b24:	42a6      	cmp	r6, r4
 8001b26:	d109      	bne.n	8001b3c <__libc_init_array+0x24>
 8001b28:	4d0b      	ldr	r5, [pc, #44]	; (8001b58 <__libc_init_array+0x40>)
 8001b2a:	4c0c      	ldr	r4, [pc, #48]	; (8001b5c <__libc_init_array+0x44>)
 8001b2c:	f000 f820 	bl	8001b70 <_init>
 8001b30:	1b64      	subs	r4, r4, r5
 8001b32:	10a4      	asrs	r4, r4, #2
 8001b34:	2600      	movs	r6, #0
 8001b36:	42a6      	cmp	r6, r4
 8001b38:	d105      	bne.n	8001b46 <__libc_init_array+0x2e>
 8001b3a:	bd70      	pop	{r4, r5, r6, pc}
 8001b3c:	f855 3b04 	ldr.w	r3, [r5], #4
 8001b40:	4798      	blx	r3
 8001b42:	3601      	adds	r6, #1
 8001b44:	e7ee      	b.n	8001b24 <__libc_init_array+0xc>
 8001b46:	f855 3b04 	ldr.w	r3, [r5], #4
 8001b4a:	4798      	blx	r3
 8001b4c:	3601      	adds	r6, #1
 8001b4e:	e7f2      	b.n	8001b36 <__libc_init_array+0x1e>
 8001b50:	0800297c 	.word	0x0800297c
 8001b54:	0800297c 	.word	0x0800297c
 8001b58:	0800297c 	.word	0x0800297c
 8001b5c:	08002980 	.word	0x08002980

08001b60 <memset>:
 8001b60:	4402      	add	r2, r0
 8001b62:	4603      	mov	r3, r0
 8001b64:	4293      	cmp	r3, r2
 8001b66:	d100      	bne.n	8001b6a <memset+0xa>
 8001b68:	4770      	bx	lr
 8001b6a:	f803 1b01 	strb.w	r1, [r3], #1
 8001b6e:	e7f9      	b.n	8001b64 <memset+0x4>

08001b70 <_init>:
 8001b70:	b5f8      	push	{r3, r4, r5, r6, r7, lr}
 8001b72:	bf00      	nop
 8001b74:	bcf8      	pop	{r3, r4, r5, r6, r7}
 8001b76:	bc08      	pop	{r3}
 8001b78:	469e      	mov	lr, r3
 8001b7a:	4770      	bx	lr

08001b7c <_fini>:
 8001b7c:	b5f8      	push	{r3, r4, r5, r6, r7, lr}
 8001b7e:	bf00      	nop
 8001b80:	bcf8      	pop	{r3, r4, r5, r6, r7}
 8001b82:	bc08      	pop	{r3}
 8001b84:	469e      	mov	lr, r3
 8001b86:	4770      	bx	lr
